###############################################################################
#
# IAR ELF Linker V9.20.2.320/W64 for ARM                  27/Jul/2023  14:26:46
# Copyright 2007-2021 IAR Systems AB.
#
#    Output file  =
#        F:\PROJECTS\GANGES\2023\27.07.2023\PHASE 3\Solar Cleaner & Track
#        Changer\CODE_G3_TC_08.06.2023\TRACKCHANGER_G3\iar\buildoutput\Solar_Robot_Board_Test1.out
#    Map file     =
#        F:\PROJECTS\GANGES\2023\27.07.2023\PHASE 3\Solar Cleaner & Track
#        Changer\CODE_G3_TC_08.06.2023\TRACKCHANGER_G3\iar\release\list\Solar_Robot_Board_Test1.map
#    Command line =
#        -f "F:\PROJECTS\GANGES\2023\27.07.2023\PHASE 3\Solar Cleaner & Track
#        Changer\CODE_G3_TC_08.06.2023\TRACKCHANGER_G3\iar\buildoutput\Solar_Robot_Board_Test1.out.rsp"
#        ("F:\PROJECTS\GANGES\2023\27.07.2023\PHASE 3\Solar Cleaner & Track
#        Changer\CODE_G3_TC_08.06.2023\TRACKCHANGER_G3\iar\release\obj\source\ADC\adc.o"
#        "F:\PROJECTS\GANGES\2023\27.07.2023\PHASE 3\Solar Cleaner & Track
#        Changer\CODE_G3_TC_08.06.2023\TRACKCHANGER_G3\iar\release\obj\source\API
#        Processing\APIProcessing.o" "F:\PROJECTS\GANGES\2023\27.07.2023\PHASE
#        3\Solar Cleaner & Track
#        Changer\CODE_G3_TC_08.06.2023\TRACKCHANGER_G3\iar\release\obj\source\RobotOperation\AutoSchedule\AutoSchedule.o"
#        "F:\PROJECTS\GANGES\2023\27.07.2023\PHASE 3\Solar Cleaner & Track
#        Changer\CODE_G3_TC_08.06.2023\TRACKCHANGER_G3\iar\release\obj\source\LTC4015\bat_i2c.o"
#        "F:\PROJECTS\GANGES\2023\27.07.2023\PHASE 3\Solar Cleaner & Track
#        Changer\CODE_G3_TC_08.06.2023\TRACKCHANGER_G3\iar\release\obj\source\Communication\BmsUart\BmsUart.o"
#        "F:\PROJECTS\GANGES\2023\27.07.2023\PHASE 3\Solar Cleaner & Track
#        Changer\CODE_G3_TC_08.06.2023\TRACKCHANGER_G3\iar\release\obj\board\board.o"
#        "F:\PROJECTS\GANGES\2023\27.07.2023\PHASE 3\Solar Cleaner & Track
#        Changer\CODE_G3_TC_08.06.2023\TRACKCHANGER_G3\iar\release\obj\source\RobotControl\BrushControl\BrushControl.o"
#        "F:\PROJECTS\GANGES\2023\27.07.2023\PHASE 3\Solar Cleaner & Track
#        Changer\CODE_G3_TC_08.06.2023\TRACKCHANGER_G3\iar\release\obj\source\MotorControl\BrushMotor\BrushMotorControl.o"
#        "F:\PROJECTS\GANGES\2023\27.07.2023\PHASE 3\Solar Cleaner & Track
#        Changer\CODE_G3_TC_08.06.2023\TRACKCHANGER_G3\iar\release\obj\source\MotorControl\BrushMotor\BrushMotorControl_hal.o"
#        "F:\PROJECTS\GANGES\2023\27.07.2023\PHASE 3\Solar Cleaner & Track
#        Changer\CODE_G3_TC_08.06.2023\TRACKCHANGER_G3\iar\release\obj\source\MotorControl\BrushMotor\BrushPwm\BrushPwm.o"
#        "F:\PROJECTS\GANGES\2023\27.07.2023\PHASE 3\Solar Cleaner & Track
#        Changer\CODE_G3_TC_08.06.2023\TRACKCHANGER_G3\iar\release\obj\source\PROXIMITY\cleanerdetect1.o"
#        "F:\PROJECTS\GANGES\2023\27.07.2023\PHASE 3\Solar Cleaner & Track
#        Changer\CODE_G3_TC_08.06.2023\TRACKCHANGER_G3\iar\release\obj\source\PROXIMITY\cleanerdetect2.o"
#        "F:\PROJECTS\GANGES\2023\27.07.2023\PHASE 3\Solar Cleaner & Track
#        Changer\CODE_G3_TC_08.06.2023\TRACKCHANGER_G3\iar\release\obj\source\PROXIMITY\cleanerdetectcommon.o"
#        "F:\PROJECTS\GANGES\2023\27.07.2023\PHASE 3\Solar Cleaner & Track
#        Changer\CODE_G3_TC_08.06.2023\TRACKCHANGER_G3\iar\release\obj\board\clock_config.o"
#        "F:\PROJECTS\GANGES\2023\27.07.2023\PHASE 3\Solar Cleaner & Track
#        Changer\CODE_G3_TC_08.06.2023\TRACKCHANGER_G3\iar\release\obj\source\Communication\CommCommon.o"
#        "F:\PROJECTS\GANGES\2023\27.07.2023\PHASE 3\Solar Cleaner & Track
#        Changer\CODE_G3_TC_08.06.2023\TRACKCHANGER_G3\iar\release\obj\source\Communication\ConfigUart\ConfigUart
#        API Process\ConfigAPIProcess.o"
#        "F:\PROJECTS\GANGES\2023\27.07.2023\PHASE 3\Solar Cleaner & Track
#        Changer\CODE_G3_TC_08.06.2023\TRACKCHANGER_G3\iar\release\obj\source\Communication\ConfigUart\ConfigUart.o"
#        "F:\PROJECTS\GANGES\2023\27.07.2023\PHASE 3\Solar Cleaner & Track
#        Changer\CODE_G3_TC_08.06.2023\TRACKCHANGER_G3\iar\release\obj\source\RobotOperation\CycleMode\CycleMode.o"
#        "F:\PROJECTS\GANGES\2023\27.07.2023\PHASE 3\Solar Cleaner & Track
#        Changer\CODE_G3_TC_08.06.2023\TRACKCHANGER_G3\iar\release\obj\source\Communication\DebugUart\DebugUart.o"
#        "F:\PROJECTS\GANGES\2023\27.07.2023\PHASE 3\Solar Cleaner & Track
#        Changer\CODE_G3_TC_08.06.2023\TRACKCHANGER_G3\iar\release\obj\source\DefaultValues\DefaultValues.o"
#        "F:\PROJECTS\GANGES\2023\27.07.2023\PHASE 3\Solar Cleaner & Track
#        Changer\CODE_G3_TC_08.06.2023\TRACKCHANGER_G3\iar\release\obj\source\DELAY\delay.o"
#        "F:\PROJECTS\GANGES\2023\27.07.2023\PHASE 3\Solar Cleaner & Track
#        Changer\CODE_G3_TC_08.06.2023\TRACKCHANGER_G3\iar\release\obj\source\SDFAT\diskio.o"
#        "F:\PROJECTS\GANGES\2023\27.07.2023\PHASE 3\Solar Cleaner & Track
#        Changer\CODE_G3_TC_08.06.2023\TRACKCHANGER_G3\iar\release\obj\source\EdgeSensor\EdgeSense1.o"
#        "F:\PROJECTS\GANGES\2023\27.07.2023\PHASE 3\Solar Cleaner & Track
#        Changer\CODE_G3_TC_08.06.2023\TRACKCHANGER_G3\iar\release\obj\source\EdgeSensor\EdgeSense2.o"
#        "F:\PROJECTS\GANGES\2023\27.07.2023\PHASE 3\Solar Cleaner & Track
#        Changer\CODE_G3_TC_08.06.2023\TRACKCHANGER_G3\iar\release\obj\source\EdgeSensor\EdgeSenseCommon.o"
#        "F:\PROJECTS\GANGES\2023\27.07.2023\PHASE 3\Solar Cleaner & Track
#        Changer\CODE_G3_TC_08.06.2023\TRACKCHANGER_G3\iar\release\obj\source\EEPROM\eeprom.o"
#        "F:\PROJECTS\GANGES\2023\27.07.2023\PHASE 3\Solar Cleaner & Track
#        Changer\CODE_G3_TC_08.06.2023\TRACKCHANGER_G3\iar\release\obj\source\EEPROM\EepromMain.o"
#        "F:\PROJECTS\GANGES\2023\27.07.2023\PHASE 3\Solar Cleaner & Track
#        Changer\CODE_G3_TC_08.06.2023\TRACKCHANGER_G3\iar\release\obj\source\EEPROM\eepromStdtoHalDriver.o"
#        "F:\PROJECTS\GANGES\2023\27.07.2023\PHASE 3\Solar Cleaner & Track
#        Changer\CODE_G3_TC_08.06.2023\TRACKCHANGER_G3\iar\release\obj\source\EEPROM\eepromStore.o"
#        "F:\PROJECTS\GANGES\2023\27.07.2023\PHASE 3\Solar Cleaner & Track
#        Changer\CODE_G3_TC_08.06.2023\TRACKCHANGER_G3\iar\release\obj\source\EventLogger\EventLogger.o"
#        "F:\PROJECTS\GANGES\2023\27.07.2023\PHASE 3\Solar Cleaner & Track
#        Changer\CODE_G3_TC_08.06.2023\TRACKCHANGER_G3\iar\release\obj\source\EventLogger\EventLoggerFlash.o"
#        "F:\PROJECTS\GANGES\2023\27.07.2023\PHASE 3\Solar Cleaner & Track
#        Changer\CODE_G3_TC_08.06.2023\TRACKCHANGER_G3\iar\release\obj\source\RobotOperation\FaultProcess\FaultProcess.o"
#        "F:\PROJECTS\GANGES\2023\27.07.2023\PHASE 3\Solar Cleaner & Track
#        Changer\CODE_G3_TC_08.06.2023\TRACKCHANGER_G3\iar\release\obj\source\SDFAT\ff.o"
#        "F:\PROJECTS\GANGES\2023\27.07.2023\PHASE 3\Solar Cleaner & Track
#        Changer\CODE_G3_TC_08.06.2023\TRACKCHANGER_G3\iar\release\obj\drivers\fsl_adc16.o"
#        "F:\PROJECTS\GANGES\2023\27.07.2023\PHASE 3\Solar Cleaner & Track
#        Changer\CODE_G3_TC_08.06.2023\TRACKCHANGER_G3\iar\release\obj\utilities\fsl_assert.o"
#        "F:\PROJECTS\GANGES\2023\27.07.2023\PHASE 3\Solar Cleaner & Track
#        Changer\CODE_G3_TC_08.06.2023\TRACKCHANGER_G3\iar\release\obj\drivers\fsl_clock.o"
#        "F:\PROJECTS\GANGES\2023\27.07.2023\PHASE 3\Solar Cleaner & Track
#        Changer\CODE_G3_TC_08.06.2023\TRACKCHANGER_G3\iar\release\obj\drivers\fsl_common.o"
#        "F:\PROJECTS\GANGES\2023\27.07.2023\PHASE 3\Solar Cleaner & Track
#        Changer\CODE_G3_TC_08.06.2023\TRACKCHANGER_G3\iar\release\obj\utilities\fsl_debug_console.o"
#        "F:\PROJECTS\GANGES\2023\27.07.2023\PHASE 3\Solar Cleaner & Track
#        Changer\CODE_G3_TC_08.06.2023\TRACKCHANGER_G3\iar\release\obj\drivers\fsl_dspi.o"
#        "F:\PROJECTS\GANGES\2023\27.07.2023\PHASE 3\Solar Cleaner & Track
#        Changer\CODE_G3_TC_08.06.2023\TRACKCHANGER_G3\iar\release\obj\drivers\fsl_flash.o"
#        "F:\PROJECTS\GANGES\2023\27.07.2023\PHASE 3\Solar Cleaner & Track
#        Changer\CODE_G3_TC_08.06.2023\TRACKCHANGER_G3\iar\release\obj\drivers\fsl_ftm.o"
#        "F:\PROJECTS\GANGES\2023\27.07.2023\PHASE 3\Solar Cleaner & Track
#        Changer\CODE_G3_TC_08.06.2023\TRACKCHANGER_G3\iar\release\obj\drivers\fsl_gpio.o"
#        "F:\PROJECTS\GANGES\2023\27.07.2023\PHASE 3\Solar Cleaner & Track
#        Changer\CODE_G3_TC_08.06.2023\TRACKCHANGER_G3\iar\release\obj\drivers\fsl_i2c.o"
#        "F:\PROJECTS\GANGES\2023\27.07.2023\PHASE 3\Solar Cleaner & Track
#        Changer\CODE_G3_TC_08.06.2023\TRACKCHANGER_G3\iar\release\obj\utilities\fsl_io.o"
#        "F:\PROJECTS\GANGES\2023\27.07.2023\PHASE 3\Solar Cleaner & Track
#        Changer\CODE_G3_TC_08.06.2023\TRACKCHANGER_G3\iar\release\obj\utilities\fsl_log.o"
#        "F:\PROJECTS\GANGES\2023\27.07.2023\PHASE 3\Solar Cleaner & Track
#        Changer\CODE_G3_TC_08.06.2023\TRACKCHANGER_G3\iar\release\obj\drivers\fsl_lptmr.o"
#        "F:\PROJECTS\GANGES\2023\27.07.2023\PHASE 3\Solar Cleaner & Track
#        Changer\CODE_G3_TC_08.06.2023\TRACKCHANGER_G3\iar\release\obj\drivers\fsl_rcm.o"
#        "F:\PROJECTS\GANGES\2023\27.07.2023\PHASE 3\Solar Cleaner & Track
#        Changer\CODE_G3_TC_08.06.2023\TRACKCHANGER_G3\iar\release\obj\drivers\fsl_rtc.o"
#        "F:\PROJECTS\GANGES\2023\27.07.2023\PHASE 3\Solar Cleaner & Track
#        Changer\CODE_G3_TC_08.06.2023\TRACKCHANGER_G3\iar\release\obj\drivers\fsl_smc.o"
#        "F:\PROJECTS\GANGES\2023\27.07.2023\PHASE 3\Solar Cleaner & Track
#        Changer\CODE_G3_TC_08.06.2023\TRACKCHANGER_G3\iar\release\obj\utilities\fsl_str.o"
#        "F:\PROJECTS\GANGES\2023\27.07.2023\PHASE 3\Solar Cleaner & Track
#        Changer\CODE_G3_TC_08.06.2023\TRACKCHANGER_G3\iar\release\obj\drivers\fsl_uart.o"
#        "F:\PROJECTS\GANGES\2023\27.07.2023\PHASE 3\Solar Cleaner & Track
#        Changer\CODE_G3_TC_08.06.2023\TRACKCHANGER_G3\iar\release\obj\drivers\fsl_vref.o"
#        "F:\PROJECTS\GANGES\2023\27.07.2023\PHASE 3\Solar Cleaner & Track
#        Changer\CODE_G3_TC_08.06.2023\TRACKCHANGER_G3\iar\release\obj\drivers\fsl_wdog.o"
#        "F:\PROJECTS\GANGES\2023\27.07.2023\PHASE 3\Solar Cleaner & Track
#        Changer\CODE_G3_TC_08.06.2023\TRACKCHANGER_G3\iar\release\obj\source\Communication\ConfigUart\ConfigUart
#        API Process\JSON Parser\fun_json.o"
#        "F:\PROJECTS\GANGES\2023\27.07.2023\PHASE 3\Solar Cleaner & Track
#        Changer\CODE_G3_TC_08.06.2023\TRACKCHANGER_G3\iar\release\obj\source\I2C\i2c_init.o"
#        "F:\PROJECTS\GANGES\2023\27.07.2023\PHASE 3\Solar Cleaner & Track
#        Changer\CODE_G3_TC_08.06.2023\TRACKCHANGER_G3\iar\release\obj\source\Communication\ConfigUart\ConfigUart
#        API Process\JSON Parser\json.o"
#        "F:\PROJECTS\GANGES\2023\27.07.2023\PHASE 3\Solar Cleaner & Track
#        Changer\CODE_G3_TC_08.06.2023\TRACKCHANGER_G3\iar\release\obj\source\LED\LED1\Led1.o"
#        "F:\PROJECTS\GANGES\2023\27.07.2023\PHASE 3\Solar Cleaner & Track
#        Changer\CODE_G3_TC_08.06.2023\TRACKCHANGER_G3\iar\release\obj\source\LED\LED2\Led2.o"
#        "F:\PROJECTS\GANGES\2023\27.07.2023\PHASE 3\Solar Cleaner & Track
#        Changer\CODE_G3_TC_08.06.2023\TRACKCHANGER_G3\iar\release\obj\source\LED\LED3\Led3.o"
#        "F:\PROJECTS\GANGES\2023\27.07.2023\PHASE 3\Solar Cleaner & Track
#        Changer\CODE_G3_TC_08.06.2023\TRACKCHANGER_G3\iar\release\obj\source\LED\LedCommon.o"
#        "F:\PROJECTS\GANGES\2023\27.07.2023\PHASE 3\Solar Cleaner & Track
#        Changer\CODE_G3_TC_08.06.2023\TRACKCHANGER_G3\iar\release\obj\source\OTHER\LPTimer\LPTimer.o"
#        "F:\PROJECTS\GANGES\2023\27.07.2023\PHASE 3\Solar Cleaner & Track
#        Changer\CODE_G3_TC_08.06.2023\TRACKCHANGER_G3\iar\release\obj\source\LTC4015\LTC4015.o"
#        "F:\PROJECTS\GANGES\2023\27.07.2023\PHASE 3\Solar Cleaner & Track
#        Changer\CODE_G3_TC_08.06.2023\TRACKCHANGER_G3\iar\release\obj\source\LTC4015\LTC4015_main.o"
#        "F:\PROJECTS\GANGES\2023\27.07.2023\PHASE 3\Solar Cleaner & Track
#        Changer\CODE_G3_TC_08.06.2023\TRACKCHANGER_G3\iar\release\obj\source\RobotOperation\FaultProcess\OverCurrentFault\Mot1CurrentFault.o"
#        "F:\PROJECTS\GANGES\2023\27.07.2023\PHASE 3\Solar Cleaner & Track
#        Changer\CODE_G3_TC_08.06.2023\TRACKCHANGER_G3\iar\release\obj\source\RobotOperation\FaultProcess\OverCurrentFault\Mot2CurrentFault.o"
#        "F:\PROJECTS\GANGES\2023\27.07.2023\PHASE 3\Solar Cleaner & Track
#        Changer\CODE_G3_TC_08.06.2023\TRACKCHANGER_G3\iar\release\obj\source\RobotOperation\FaultProcess\OverCurrentFault\Mot3CurrentFault.o"
#        "F:\PROJECTS\GANGES\2023\27.07.2023\PHASE 3\Solar Cleaner & Track
#        Changer\CODE_G3_TC_08.06.2023\TRACKCHANGER_G3\iar\release\obj\source\RobotOperation\FaultProcess\OverCurrentFault\MotCurrentFaultCommon.o"
#        "F:\PROJECTS\GANGES\2023\27.07.2023\PHASE 3\Solar Cleaner & Track
#        Changer\CODE_G3_TC_08.06.2023\TRACKCHANGER_G3\iar\release\obj\source\MotorControl\Motor1\Motor1Control.o"
#        "F:\PROJECTS\GANGES\2023\27.07.2023\PHASE 3\Solar Cleaner & Track
#        Changer\CODE_G3_TC_08.06.2023\TRACKCHANGER_G3\iar\release\obj\source\MotorControl\Motor1\Motor1Control_hal.o"
#        "F:\PROJECTS\GANGES\2023\27.07.2023\PHASE 3\Solar Cleaner & Track
#        Changer\CODE_G3_TC_08.06.2023\TRACKCHANGER_G3\iar\release\obj\source\MotorControl\Motor2\Motor2Control.o"
#        "F:\PROJECTS\GANGES\2023\27.07.2023\PHASE 3\Solar Cleaner & Track
#        Changer\CODE_G3_TC_08.06.2023\TRACKCHANGER_G3\iar\release\obj\source\MotorControl\Motor2\Motor2Control_hal.o"
#        "F:\PROJECTS\GANGES\2023\27.07.2023\PHASE 3\Solar Cleaner & Track
#        Changer\CODE_G3_TC_08.06.2023\TRACKCHANGER_G3\iar\release\obj\source\OTHER\NumStrConversion.o"
#        "F:\PROJECTS\GANGES\2023\27.07.2023\PHASE 3\Solar Cleaner & Track
#        Changer\CODE_G3_TC_08.06.2023\TRACKCHANGER_G3\iar\release\obj\board\pin_mux.o"
#        "F:\PROJECTS\GANGES\2023\27.07.2023\PHASE 3\Solar Cleaner & Track
#        Changer\CODE_G3_TC_08.06.2023\TRACKCHANGER_G3\iar\release\obj\source\PortInterrupt\PortInterrupt.o"
#        "F:\PROJECTS\GANGES\2023\27.07.2023\PHASE 3\Solar Cleaner & Track
#        Changer\CODE_G3_TC_08.06.2023\TRACKCHANGER_G3\iar\release\obj\source\PROXIMITY\proximity.o"
#        "F:\PROJECTS\GANGES\2023\27.07.2023\PHASE 3\Solar Cleaner & Track
#        Changer\CODE_G3_TC_08.06.2023\TRACKCHANGER_G3\iar\release\obj\source\MotorControl\Motor1\Pwm1\Pwm1.o"
#        "F:\PROJECTS\GANGES\2023\27.07.2023\PHASE 3\Solar Cleaner & Track
#        Changer\CODE_G3_TC_08.06.2023\TRACKCHANGER_G3\iar\release\obj\source\MotorControl\Motor2\Pwm2\Pwm2.o"
#        "F:\PROJECTS\GANGES\2023\27.07.2023\PHASE 3\Solar Cleaner & Track
#        Changer\CODE_G3_TC_08.06.2023\TRACKCHANGER_G3\iar\release\obj\source\SPI\PwmDriveSpi.o"
#        "F:\PROJECTS\GANGES\2023\27.07.2023\PHASE 3\Solar Cleaner & Track
#        Changer\CODE_G3_TC_08.06.2023\TRACKCHANGER_G3\iar\release\obj\source\RotateSense\QuadDecoder.o"
#        "F:\PROJECTS\GANGES\2023\27.07.2023\PHASE 3\Solar Cleaner & Track
#        Changer\CODE_G3_TC_08.06.2023\TRACKCHANGER_G3\iar\release\obj\source\Relay\Relay.o"
#        "F:\PROJECTS\GANGES\2023\27.07.2023\PHASE 3\Solar Cleaner & Track
#        Changer\CODE_G3_TC_08.06.2023\TRACKCHANGER_G3\iar\release\obj\source\API
#        Processing\ResponseAPIProcess.o"
#        "F:\PROJECTS\GANGES\2023\27.07.2023\PHASE 3\Solar Cleaner & Track
#        Changer\CODE_G3_TC_08.06.2023\TRACKCHANGER_G3\iar\release\obj\source\RFID\rfid.o"
#        "F:\PROJECTS\GANGES\2023\27.07.2023\PHASE 3\Solar Cleaner & Track
#        Changer\CODE_G3_TC_08.06.2023\TRACKCHANGER_G3\iar\release\obj\source\RobotControl\RobotControl.o"
#        "F:\PROJECTS\GANGES\2023\27.07.2023\PHASE 3\Solar Cleaner & Track
#        Changer\CODE_G3_TC_08.06.2023\TRACKCHANGER_G3\iar\release\obj\source\RobotMain.o"
#        "F:\PROJECTS\GANGES\2023\27.07.2023\PHASE 3\Solar Cleaner & Track
#        Changer\CODE_G3_TC_08.06.2023\TRACKCHANGER_G3\iar\release\obj\source\RobotOperation\RobotOperation.o"
#        "F:\PROJECTS\GANGES\2023\27.07.2023\PHASE 3\Solar Cleaner & Track
#        Changer\CODE_G3_TC_08.06.2023\TRACKCHANGER_G3\iar\release\obj\source\RotateSense\RotateSense1.o"
#        "F:\PROJECTS\GANGES\2023\27.07.2023\PHASE 3\Solar Cleaner & Track
#        Changer\CODE_G3_TC_08.06.2023\TRACKCHANGER_G3\iar\release\obj\source\RotateSense\RotateSense2.o"
#        "F:\PROJECTS\GANGES\2023\27.07.2023\PHASE 3\Solar Cleaner & Track
#        Changer\CODE_G3_TC_08.06.2023\TRACKCHANGER_G3\iar\release\obj\source\RotateSense\RotateSenseCommon.o"
#        "F:\PROJECTS\GANGES\2023\27.07.2023\PHASE 3\Solar Cleaner & Track
#        Changer\CODE_G3_TC_08.06.2023\TRACKCHANGER_G3\iar\release\obj\source\RTC\Rtc.o"
#        "F:\PROJECTS\GANGES\2023\27.07.2023\PHASE 3\Solar Cleaner & Track
#        Changer\CODE_G3_TC_08.06.2023\TRACKCHANGER_G3\iar\release\obj\source\SDFAT\SDcardoperation.o"
#        "F:\PROJECTS\GANGES\2023\27.07.2023\PHASE 3\Solar Cleaner & Track
#        Changer\CODE_G3_TC_08.06.2023\TRACKCHANGER_G3\iar\release\obj\source\DEBUG\serial_debug.o"
#        "F:\PROJECTS\GANGES\2023\27.07.2023\PHASE 3\Solar Cleaner & Track
#        Changer\CODE_G3_TC_08.06.2023\TRACKCHANGER_G3\iar\release\obj\source\SPI\spi.o"
#        "F:\PROJECTS\GANGES\2023\27.07.2023\PHASE 3\Solar Cleaner & Track
#        Changer\CODE_G3_TC_08.06.2023\TRACKCHANGER_G3\iar\release\obj\startup\startup_MK22FA12.o"
#        "F:\PROJECTS\GANGES\2023\27.07.2023\PHASE 3\Solar Cleaner & Track
#        Changer\CODE_G3_TC_08.06.2023\TRACKCHANGER_G3\iar\release\obj\source\LTC4015\store_soc.o"
#        "F:\PROJECTS\GANGES\2023\27.07.2023\PHASE 3\Solar Cleaner & Track
#        Changer\CODE_G3_TC_08.06.2023\TRACKCHANGER_G3\iar\release\obj\source\SWITCH\switch.o"
#        "F:\PROJECTS\GANGES\2023\27.07.2023\PHASE 3\Solar Cleaner & Track
#        Changer\CODE_G3_TC_08.06.2023\TRACKCHANGER_G3\iar\release\obj\startup\system_MK22FA12.o"
#        "F:\PROJECTS\GANGES\2023\27.07.2023\PHASE 3\Solar Cleaner & Track
#        Changer\CODE_G3_TC_08.06.2023\TRACKCHANGER_G3\iar\release\obj\source\TEMP
#        SENSOR\temp_sensors.o" "F:\PROJECTS\GANGES\2023\27.07.2023\PHASE
#        3\Solar Cleaner & Track
#        Changer\CODE_G3_TC_08.06.2023\TRACKCHANGER_G3\iar\release\obj\source\TempVariables.o"
#        "F:\PROJECTS\GANGES\2023\27.07.2023\PHASE 3\Solar Cleaner & Track
#        Changer\CODE_G3_TC_08.06.2023\TRACKCHANGER_G3\iar\release\obj\source\EEPROM\usr_flash.o"
#        "F:\PROJECTS\GANGES\2023\27.07.2023\PHASE 3\Solar Cleaner & Track
#        Changer\CODE_G3_TC_08.06.2023\TRACKCHANGER_G3\iar\release\obj\source\API
#        Processing\ValuesValidate.o" "F:\PROJECTS\GANGES\2023\27.07.2023\PHASE
#        3\Solar Cleaner & Track
#        Changer\CODE_G3_TC_08.06.2023\TRACKCHANGER_G3\iar\release\obj\source\OTHER\VBatREG\VBatReg.o"
#        "F:\PROJECTS\GANGES\2023\27.07.2023\PHASE 3\Solar Cleaner & Track
#        Changer\CODE_G3_TC_08.06.2023\TRACKCHANGER_G3\iar\release\obj\source\OTHER\WDTimer\WDTimer.o"
#        "F:\PROJECTS\GANGES\2023\27.07.2023\PHASE 3\Solar Cleaner & Track
#        Changer\CODE_G3_TC_08.06.2023\TRACKCHANGER_G3\ZigbeeAPILibrary\XbeeZigbeeAPI.a"
#        "F:\PROJECTS\GANGES\2023\27.07.2023\PHASE 3\Solar Cleaner & Track
#        Changer\CODE_G3_TC_08.06.2023\TRACKCHANGER_G3\iar\release\obj\source\Communication\ZigbeeAPIMode\ZigbeeAPIMode.o"
#        "F:\PROJECTS\GANGES\2023\27.07.2023\PHASE 3\Solar Cleaner & Track
#        Changer\CODE_G3_TC_08.06.2023\TRACKCHANGER_G3\iar\release\obj\source\Communication\ZigbeeUart\ZigbeeUart.o"
#        --redirect _Printf=_PrintfSmallNoMb --redirect _Scanf=_ScanfSmallNoMb
#        --no_out_extension -o "F:\PROJECTS\GANGES\2023\27.07.2023\PHASE
#        3\Solar Cleaner & Track
#        Changer\CODE_G3_TC_08.06.2023\TRACKCHANGER_G3\iar\buildoutput\Solar_Robot_Board_Test1.out"
#        --map "F:\PROJECTS\GANGES\2023\27.07.2023\PHASE 3\Solar Cleaner &
#        Track
#        Changer\CODE_G3_TC_08.06.2023\TRACKCHANGER_G3\iar\release\list\Solar_Robot_Board_Test1.map"
#        --config "C:\Program Files\IAR Systems\Embedded Workbench
#        9.0\arm\config\linker\NXP\MK22xN1M_12.icf" --entry __iar_program_start
#        --inline --vfe --text_out locale)
#
###############################################################################

*******************************************************************************
*** RUNTIME MODEL ATTRIBUTES
***

CppFlavor                     = *
__CPP_Exceptions              = Disabled
__CPP_Language                = C++14
__CPP_Library                 = *
__CPP_Runtime                 = 1
__Heap_Handler                = DLMalloc
__SystemLibrary               = DLib
__dlib_dynamic_initialization = normal
__dlib_version                = 6


*******************************************************************************
*** HEAP SELECTION
***

The advanced heap was selected because the application calls memory
allocation functions outside of system library functions, and there
are calls to deallocation functions in the application.


*******************************************************************************
*** PLACEMENT SUMMARY
***

"A0":  place at address 0x0 { ro section .intvec };
"P1":  place in [from 0x400 to 0x40f] { section FlashConfig };
"P2":  place in [from 0x0 to 0x3ff] |
                [from 0x410 to 0xf'ffff] { ro };
define block CSTACK with size = 8K, alignment = 8 { };
define block HEAP with size = 16K, alignment = 8 { };
"P3":  place in [from 0x1fff'0000 to 0x1fff'ffff repeat 2] {
          rw, block CSTACK, block HEAP };
initialize by copy { rw };

  Section                Kind         Address      Size  Object
  -------                ----         -------      ----  ------
"A0":                                             0x400
  .intvec                ro code          0x0     0x400  startup_MK22FA12.o [53]
                                      - 0x400     0x400

"P1":                                              0x10
  FlashConfig            ro code        0x400      0x10  startup_MK22FA12.o [53]
                                      - 0x410      0x10

"P2":                                          0x2'0210
  .text                  ro code        0x410    0x6e38  APIProcessing.o [5]
  .text                  ro code       0x7248     0x330  NumStrConversion.o [32]
  .text                  ro code       0x7578      0x90  iar_Stolx.o [56]
  .text                  ro code       0x7608      0xe0  ValuesValidate.o [5]
  .text                  ro code       0x76e8    0x1c84  RobotOperation.o [43]
  .text                  ro code       0x936c      0x90  MotCurrentFaultCommon.o [47]
  .text                  ro code       0x93fc     0x156  iar_Stoulx.o [56]
  .text                  ro code       0x9552      0x1a  xsnprout.o [56]
  .text                  ro code       0x956c     0x178  CycleMode.o [45]
  .text                  ro code       0x96e4      0x44  snprintf.o [56]
  .text                  ro code       0x9728      0x36  strlen.o [59]
  .rodata                const         0x975e       0x2  xlocale_c.o [56]
  .text                  ro code       0x9760      0xa8  AutoSchedule.o [44]
  .text                  ro code       0x9808      0x72  EdgeSenseCommon.o [18]
  .rodata                const         0x987a       0x2  xlocale_c.o [56]
  .text                  ro code       0x987c     0x33c  Rtc.o [39]
  .text                  ro code       0x9bb8     0x498  FaultProcess.o [46]
  .text                  ro code       0xa050     0x328  DefaultValues.o [16]
  .text                  ro code       0xa378     0xb70  RobotControl.o [41]
  .text                  ro code       0xaee8     0x658  ZigbeeAPIMode.o [12]
  .text                  ro code       0xb540     0x4f8  LTC4015_main.o [25]
  .text                  ro code       0xba38      0xa0  CommCommon.o [6]
  .text                  ro code       0xbad8      0x1e  strcat.o [56]
  .text                  ro code       0xbaf6     0x10c  RotateSenseCommon.o [48]
  .text                  ro code       0xbc02       0x2  startup_MK22FA12.o [53]
  .text                  ro code       0xbc04    0x1988  eepromStore.o [17]
  .text                  ro code       0xd58c     0x290  ResponseAPIProcess.o [5]
  .text                  ro code       0xd81c      0x46  switch.o [51]
  .text                  ro code       0xd862       0x2  startup_MK22FA12.o [53]
  .text                  ro code       0xd864      0xac  temp_sensors.o [52]
  .text                  ro code       0xd910       0x6  ABImemclr4.o [59]
  .text                  ro code       0xd916       0x6  serial_debug.o [14]
  .text                  ro code       0xd91c       0xa  EventLogger.o [19]
  .text                  ro code       0xd926       0x2  startup_MK22FA12.o [53]
  .text                  ro code       0xd928     0x2c8  ConfigAPIProcess.o [9]
  .text                  ro code       0xdbf0      0xa6  ABImemcpy.o [59]
  .text                  ro code       0xdc96       0x2  startup_MK22FA12.o [53]
  .text                  ro code       0xdc98      0x42  cleanerdetect2.o [36]
  .text                  ro code       0xdcda       0x2  startup_MK22FA12.o [53]
  .text                  ro code       0xdcdc      0x42  cleanerdetect1.o [36]
  .text                  ro code       0xdd1e       0x2  startup_MK22FA12.o [53]
  .text                  ro code       0xdd20      0xd6  proximity.o [36]
  .text                  ro code       0xddf6       0x2  startup_MK22FA12.o [53]
  .text                  ro code       0xddf8     0x57c  rfid.o [38]
  .text                  ro code       0xe374     0x1b2  iar_Stoullx.o [56]
  .text                  ro code       0xe526       0x2  startup_MK22FA12.o [53]
  .text                  ro code       0xe528     0x274  strto32.o [58]
  .text                  ro code       0xe79c       0x6  ABImemclr.o [59]
  .text                  ro code       0xe7a2       0x2  startup_MK22FA12.o [53]
  .text                  ro code       0xe7a4     0xe74  SDcardoperation.o [49]
  .text                  ro code       0xf618    0x11d0  ff.o [49]
  .text                  ro code     0x1'07e8     0x14c  adc.o [4]
  .text                  ro code     0x1'0934      0x18  strcpy.o [59]
  .text                  ro code     0x1'094c      0x66  ABImemset.o [59]
  .rodata                const       0x1'09b2       0x1  xlocale_c.o [56]
  .text                  ro code     0x1'09b4      0x22  S32ToDbl.o [58]
  .text                  ro code     0x1'09d8      0x16  math_wrappers64.o [58]
  .text                  ro code     0x1'09f0      0x48  FltToDbl.o [58]
  .text                  ro code     0x1'0a38     0x1aa  DblMul.o [58]
  .text                  ro code     0x1'0be4      0x68  DblToFlt.o [58]
  .text                  ro code     0x1'0c4c      0x14  isspace.o [56]
  .text                  ro code     0x1'0c60      0x34  cleanerdetectcommon.o [36]
  .text                  ro code     0x1'0c94      0xf0  LPTimer.o [33]
  .text                  ro code     0x1'0d84      0xc4  Relay.o [40]
  .text                  ro code     0x1'0e48      0xfa  Motor1Control_hal.o [28]
  .text                  ro code     0x1'0f44      0x22  DblToU32.o [58]
  .text                  ro code     0x1'0f68      0x68  Mot1CurrentFault.o [47]
  .text                  ro code     0x1'0fd0      0x68  Mot2CurrentFault.o [47]
  .text                  ro code     0x1'1038      0x68  Mot3CurrentFault.o [47]
  .text                  ro code     0x1'10a0      0x14  tolower.o [56]
  .text                  ro code     0x1'10b4      0x58  memchr.o [59]
  .text                  ro code     0x1'110c     0x501  xprintfsmall_nomb.o [56]
  .text                  ro code     0x1'1610      0xaa  EdgeSense1.o [18]
  .text                  ro code     0x1'16bc      0xaa  EdgeSense2.o [18]
  .text                  ro code     0x1'1768     0x3a8  fsl_rtc.o [2]
  .text                  ro code     0x1'1b10      0x10  VBatReg.o [34]
  .text                  ro code     0x1'1b20     0x4ac  BrushControl.o [42]
  .text                  ro code     0x1'1fcc      0xb0  Motor2Control_hal.o [30]
  .text                  ro code     0x1'207c      0x9c  BrushMotorControl_hal.o [26]
  .text                  ro code     0x1'2118     0x128  Motor1Control.o [28]
  .text                  ro code     0x1'2240     0x134  Motor2Control.o [30]
  .text                  ro code     0x1'2374     0x308  ZigbeeAPI.o [55]
  .text                  ro code     0x1'267c     0x266  ZigbeeUart.o [13]
  .text                  ro code     0x1'28e4     0x2c2  bat_i2c.o [25]
  .text                  ro code     0x1'2ba8      0xcc  LTC4015.o [25]
  .text                  ro code     0x1'2c74      0x40  delay.o [15]
  .text                  ro code     0x1'2cb4      0xd4  store_soc.o [25]
  .text                  ro code     0x1'2d88      0xc4  fsl_gpio.o [2]
  .text                  ro code     0x1'2e4c      0x90  PortInterrupt.o [37]
  .text                  ro code     0x1'2edc      0x1c  U32ToDbl.o [58]
  .text                  ro code     0x1'2ef8     0x246  DblDiv.o [58]
  .text                  ro code     0x1'3140     0x1e4  DebugUart.o [11]
  .text                  ro code     0x1'3324     0x25c  ConfigUart.o [8]
  .text                  ro code     0x1'3580      0xf2  RotateSense1.o [48]
  .text                  ro code     0x1'3674      0xe6  RotateSense2.o [48]
  .text                  ro code     0x1'375c     0x13c  QuadDecoder.o [48]
  .text                  ro code     0x1'3898     0x1e8  EepromMain.o [17]
  .text                  ro code     0x1'3a80     0x1bc  i2c_init.o [20]
  .text                  ro code     0x1'3c3c      0x32  ABImemset48.o [59]
  .text                  ro code     0x1'3c70     0x1d8  EventLoggerFlash.o [19]
  .text                  ro code     0x1'3e48      0x70  strncpy.o [59]
  .text                  ro code     0x1'3eb8     0x220  json.o [10]
  .text                  ro code     0x1'40d8     0x3f4  fsl_uart.o [2]
  .text                  ro code     0x1'44cc     0x5a0  fsl_clock.o [2]
  .text                  ro code     0x1'4a6c     0x230  I64DivMod.o [59]
  .text                  ro code     0x1'4c9c      0x48  frexpf.o [58]
  .text                  ro code     0x1'4ce4      0xc4  ldexpf.o [58]
  .text                  ro code     0x1'4da8     0x122  iar_Stopfx.o [56]
  .text                  ro code     0x1'4ecc     0x1b8  iar_Stoflt.o [56]
  .text                  ro code     0x1'5084     0x208  iar_Stoxflt.o [56]
  .text                  ro code     0x1'528c     0x14a  spi.o [50]
  .text                  ro code     0x1'53d8      0xa4  WDTimer.o [35]
  .text                  ro code     0x1'547c      0x2c  strstr.o [56]
  .text                  ro code     0x1'54a8     0x688  diskio.o [49]
  .text                  ro code     0x1'5b30      0x18  fsl_assert.o [54]
  .text                  ro code     0x1'5b48     0x25e  DblAddSub.o [58]
  .text                  ro code     0x1'5da8     0x644  pow64.o [58]
  .text                  ro code     0x1'63ec      0x4c  xlocale_c.o [56]
  .text                  ro code     0x1'6438      0xdc  fsl_lptmr.o [2]
  .text                  ro code     0x1'6514      0x36  LedCommon.o [21]
  .text                  ro code     0x1'654c     0x1c4  Pwm1.o [29]
  .text                  ro code     0x1'6710      0x16  strchr.o [59]
  .text                  ro code     0x1'6728      0x40  xfail_s.o [56]
  .text                  ro code     0x1'6768     0x12c  BrushMotorControl.o [26]
  .text                  ro code     0x1'6894      0x70  Pwm2.o [31]
  .text                  ro code     0x1'6904      0x78  BrushPwm.o [27]
  .text                  ro code     0x1'697c     0x4d8  XBeeZB.o [55]
  .text                  ro code     0x1'6e54       0xa  cxxabi.o [57]
  .text                  ro code     0x1'6e60     0x910  XBee.o [55]
  .text                  ro code     0x1'7770      0x26  RemoteXBee.o [55]
  .text                  ro code     0x1'7798      0x4e  DigiLogger.o [55]
  .text                  ro code     0x1'77e8      0x8c  ZigbeeAPIHAL.o [55]
  .text                  ro code     0x1'7874      0x64  Timer.o [55]
  .text                  ro code     0x1'78d8      0x24  newop_0.o [57]
  .text                  ro code     0x1'78fc      0x2e  DigiLoggerSerial.o [55]
  .text                  ro code     0x1'792c      0xc8  RadioConfig.o [55]
  .text                  ro code     0x1'79f4     0x61c  fsl_i2c.o [2]
  .text                  ro code     0x1'8010     0x738  fsl_ftm.o [2]
  .text                  ro code     0x1'8748      0x40  eepromStdtoHalDriver.o [17]
  .text                  ro code     0x1'8788     0x35c  eeprom.o [17]
  .text                  ro code     0x1'8ae4     0x21a  pin_mux.o [1]
  .text                  ro code     0x1'8d00     0x2bc  usr_flash.o [17]
  .text                  ro code     0x1'8fbc     0x364  fun_json.o [10]
  .text                  ro code     0x1'9320      0x28  strncmp.o [56]
  .text                  ro code     0x1'9348       0x2  I64DivZer.o [59]
  .text                  ro code     0x1'934a      0x14  isalpha.o [56]
  .text                  ro code     0x1'9360      0xe4  fsl_wdog.o [2]
  .text                  ro code     0x1'9444      0x60  fsl_debug_console.o [54]
  .text                  ro code     0x1'94a4      0x20  DblCmpEq.o [58]
  .text                  ro code     0x1'94c4      0x70  frexp.o [58]
  .text                  ro code     0x1'9534      0x34  DblCmpLe.o [58]
  .text                  ro code     0x1'9568      0x36  DblToS32.o [58]
  .text                  ro code     0x1'95a0      0x34  DblCmpGe.o [58]
  .text                  ro code     0x1'95d4     0x2d4  iar_Exp64.o [58]
  .text                  ro code     0x1'98a8     0x1b6  Led1.o [22]
  .text                  ro code     0x1'9a60     0x1c2  Led2.o [23]
  .text                  ro code     0x1'9c24     0x1de  Led3.o [24]
  .text                  ro code     0x1'9e04      0x62  round.o [58]
  .text                  ro code     0x1'9e66       0x6  abort.o [56]
  .text                  ro code     0x1'9e6c     0x18e  AtCommands.o [55]
  .text                  ro code     0x1'9ffa      0x48  Utils.o [55]
  .text                  ro code     0x1'a042      0x6a  ZigbeeFrames.o [55]
  .text                  ro code     0x1'a0ac     0x11c  ApiFrame.o [55]
  .text                  ro code     0x1'a1c8      0x8a  FH_RxPacketZB.o [55]
  .text                  ro code     0x1'a254       0x6  FH_IoDataSampleZB.o [55]
  .text                  ro code     0x1'a25c      0xa0  cppinit.o [56]
  .text                  ro code     0x1'a2fc     0x1ac  FrameBuffer.o [55]
  .text                  ro code     0x1'a4a8       0xe  RawSerial.o [55]
  .text                  ro code     0x1'a4b8      0x3c  vsnprint.o [56]
  .text                  ro code     0x1'a4f4       0x4  nomemory.o [57]
  .text                  ro code     0x1'a4f8    0x14d4  dlmalloc.o [56]
  .text                  ro code     0x1'b9cc      0x16  ZigbeeApi_serial_debug.o [55]
  .text                  ro code     0x1'b9e4     0x5bc  fsl_flash.o [2]
  .text                  ro code     0x1'bfa0     0x254  fsl_str.o [54]
  .text                  ro code     0x1'c1f4      0x4c  fsl_log.o [54]
  .text                  ro code     0x1'c240     0x13a  ldexp.o [58]
  .text                  ro code     0x1'c37c       0xc  XXexit.o [59]
  .text                  ro code     0x1'c388     0x168  AtCmdFrame.o [55]
  .text                  ro code     0x1'c4f0       0x4  delaop_0.o [57]
  .text                  ro code     0x1'c4f4       0x4  newaop_0.o [57]
  .text                  ro code     0x1'c4f8       0x4  delop4_0.o [57]
  .text                  ro code     0x1'c4fc       0x4  FrameHandler.o [55]
  .text                  ro code     0x1'c500      0x2c  xgetmemchunk.o [56]
  .text                  ro code     0x1'c52c      0x38  fsl_io.o [54]
  .text                  ro code     0x1'c564       0xa  delop_0.o [57]
  .text                  ro code     0x1'c56e       0x4  heaptramp0.o [56]
  .text                  ro code     0x1'c574     0x688  RobotMain.o [3]
  .text                  ro code     0x1'cbfc      0x7c  clock_config.o [1]
  .text                  ro code     0x1'cc78     0x150  BmsUart.o [7]
  .rodata                const       0x1'cdc8     0x420  pow64.o [58]
  .rodata                const       0x1'd1e8     0x314  fsl_uart.o [2]
  .rodata                const       0x1'd4fc     0x210  RobotOperation.o [43]
  .rodata                const       0x1'd70c     0x20c  RobotOperation.o [43]
  .text                  ro code     0x1'd918     0x1f0  lz77_init.o [59]
  .rodata                const       0x1'db08     0x178  fsl_i2c.o [2]
  .rodata                const       0x1'dc80     0x128  usr_flash.o [17]
  .rodata                const       0x1'dda8     0x10c  APIProcessing.o [5]
  .rodata                const       0x1'deb4     0x108  APIProcessing.o [5]
  .rodata                const       0x1'dfbc      0xec  ZigbeeAPIMode.o [12]
  .rodata                const       0x1'e0a8      0xd8  APIProcessing.o [5]
  .rodata                const       0x1'e180      0xd4  XBeeZB.o [55]
  .text                  ro code     0x1'e254      0xc8  fsl_dspi.o [2]
  .rodata                const       0x1'e31c      0xc4  fsl_lptmr.o [2]
  .rodata                const       0x1'e3e0      0xc0  fsl_dspi.o [2]
  .rodata                const       0x1'e4a0      0xc0  fsl_gpio.o [2]
  .rodata                const       0x1'e560      0xb4  APIProcessing.o [5]
  .rodata                const       0x1'e614      0xa8  FrameBuffer.o [55]
  .rodata                const       0x1'e6bc      0xa0  ApiFrame.o [55]
  .rodata                const       0x1'e75c      0xa0  AtCmdFrame.o [55]
  .rodata                const       0x1'e7fc      0x9c  APIProcessing.o [5]
  .rodata                const       0x1'e898      0x9c  ZigbeeAPI.o [55]
  .rodata                const       0x1'e934      0x98  APIProcessing.o [5]
  .rodata                const       0x1'e9cc      0x98  XBee.o [55]
  .rodata                const       0x1'ea64      0x94  APIProcessing.o [5]
  .rodata                const       0x1'eaf8      0x8c  adc.o [4]
  .rodata                const       0x1'eb84      0x8c  LPTimer.o [33]
  .rodata                const       0x1'ec10      0x8c  pin_mux.o [1]
  .rodata                const       0x1'ec9c      0x88  APIProcessing.o [5]
  .rodata                const       0x1'ed24      0x88  fsl_log.o [54]
  .rodata                const       0x1'edac      0x84  fsl_clock.o [2]
  .rodata                const       0x1'ee30      0x84  fsl_ftm.o [2]
  .rodata                const       0x1'eeb4      0x84  fsl_rtc.o [2]
  .rodata                const       0x1'ef38      0x84  fsl_wdog.o [2]
  .rodata                const       0x1'efbc      0x80  APIProcessing.o [5]
  .rodata                const       0x1'f03c      0x74  RobotOperation.o [43]
  .rodata                const       0x1'f0b0      0x70  APIProcessing.o [5]
  .rodata                const       0x1'f120      0x70  APIProcessing.o [5]
  .rodata                const       0x1'f190      0x70  APIProcessing.o [5]
  .rodata                const       0x1'f200      0x70  APIProcessing.o [5]
  .rodata                const       0x1'f270      0x70  APIProcessing.o [5]
  .rodata                const       0x1'f2e0      0x6c  APIProcessing.o [5]
  .rodata                const       0x1'f34c      0x64  XBeeZB.o [55]
  .rodata                const       0x1'f3b0      0x60  ZigbeeAPI.o [55]
  .rodata                const       0x1'f410      0x60  ZigbeeAPI.o [55]
  .rodata                const       0x1'f470      0x58  APIProcessing.o [5]
  .rodata                const       0x1'f4c8      0x58  APIProcessing.o [5]
  .rodata                const       0x1'f520      0x58  APIProcessing.o [5]
  .rodata                const       0x1'f578      0x58  RobotControl.o [41]
  .rodata                const       0x1'f5d0      0x50  iar_Stoulx.o [56]
  .rodata                const       0x1'f620      0x50  iar_Stoullx.o [56]
  .rodata                const       0x1'f670      0x4c  APIProcessing.o [5]
  .rodata                const       0x1'f6bc      0x4c  APIProcessing.o [5]
  .rodata                const       0x1'f708      0x48  APIProcessing.o [5]
  .rodata                const       0x1'f750      0x48  ZigbeeAPIMode.o [12]
  .rodata                const       0x1'f798      0x48  XBee.o [55]
  .rodata                const       0x1'f7e0      0x48  XBeeZB.o [55]
  .rodata                const       0x1'f828      0x44  RobotOperation.o [43]
  .rodata                const       0x1'f86c      0x44  XBeeZB.o [55]
  .rodata                const       0x1'f8b0      0x3c  APIProcessing.o [5]
  .rodata                const       0x1'f8ec      0x3c  RobotOperation.o [43]
  .rodata                const       0x1'f928      0x3c  ZigbeeAPIMode.o [12]
  .rodata                const       0x1'f964      0x38  APIProcessing.o [5]
  .rodata                const       0x1'f99c      0x38  APIProcessing.o [5]
  .rodata                const       0x1'f9d4      0x38  RobotMain.o [3]
  .rodata                const       0x1'fa0c      0x38  ZigbeeAPI.o [55]
  .text                  ro code     0x1'fa44      0x38  zero_init3.o [59]
  .rodata                const       0x1'fa7c      0x30  json.o [10]
  .rodata                const       0x1'faac      0x30  XBee.o [55]
  .rodata                const       0x1'fadc      0x30  XBee.o [55]
  .rodata                const       0x1'fb0c      0x30  XBeeZB.o [55]
  .rodata                const       0x1'fb3c      0x30  XBeeZB.o [55]
  .rodata                const       0x1'fb6c      0x2c  fsl_assert.o [54]
  .rodata                const       0x1'fb98      0x2c  LTC4015_main.o [25]
  .rodata                const       0x1'fbc4      0x2c  XBee.o [55]
  .rodata                const       0x1'fbf0      0x28  EventLoggerFlash.o [19]
  .rodata                const       0x1'fc18      0x28  RobotMain.o [3]
  .rodata                const       0x1'fc40      0x28  XBee.o [55]
  .rodata                const       0x1'fc68      0x28  XBeeZB.o [55]
  .text                  ro code     0x1'fc90      0x28  startup_MK22FA12.o [53]
  .text                  ro code     0x1'fcb8      0x28  system_MK22FA12.o [53]
  .text                  ro code     0x1'fce0      0x28  data_init.o [59]
  .rodata                const       0x1'fd08      0x24  APIProcessing.o [5]
  .rodata                const       0x1'fd2c      0x24  APIProcessing.o [5]
  .rodata                const       0x1'fd50      0x24  APIProcessing.o [5]
  .rodata                const       0x1'fd74      0x24  APIProcessing.o [5]
  .rodata                const       0x1'fd98      0x24  APIProcessing.o [5]
  .rodata                const       0x1'fdbc      0x24  APIProcessing.o [5]
  .rodata                const       0x1'fde0      0x24  BrushControl.o [42]
  .rodata                const       0x1'fe04      0x24  FaultProcess.o [46]
  .rodata                const       0x1'fe28      0x24  ResponseAPIProcess.o [5]
  .rodata                const       0x1'fe4c      0x24  RobotMain.o [3]
  .rodata                const       0x1'fe70      0x24  SDcardoperation.o [49]
  .rodata                const       0x1'fe94      0x24  XBeeZB.o [55]
  .rodata                const       0x1'feb8      0x24  AtCommands.o [55]
  .text                  ro code     0x1'fedc      0x22  fpinit_M.o [58]
  .iar.init_table        const       0x1'ff00      0x38  - Linker created -
  .text                  ro code     0x1'ff38      0x20  cmain_call_ctors.o [59]
  .text                  ro code     0x1'ff58      0x1e  cmain.o [59]
  .text                  ro code     0x1'ff76       0x4  exit.o [56]
  .text                  ro code     0x1'ff7c       0xe  cexit.o [59]
  .text                  ro code     0x1'ff8c      0x1c  cstartup_M.o [59]
  .rodata                const       0x1'ffa8      0x14  DigiLogger.o [55]
  .rodata                const       0x1'ffbc      0x14  DigiLoggerSerial.o [55]
  .rodata                const       0x1'ffd0      0x14  FH_RxPacketZB.o [55]
  .text                  ro code     0x1'ffe4       0x8  startup_MK22FA12.o [53]
  .text                  ro code     0x1'ffec       0x8  startup_MK22FA12.o [53]
  .text                  ro code     0x1'fff4       0x8  startup_MK22FA12.o [53]
  .text                  ro code     0x1'fffc       0x8  startup_MK22FA12.o [53]
  .text                  ro code     0x2'0004       0x8  startup_MK22FA12.o [53]
  .text                  ro code     0x2'000c       0x8  startup_MK22FA12.o [53]
  .text                  ro code     0x2'0014       0x8  startup_MK22FA12.o [53]
  .text                  ro code     0x2'001c       0x8  startup_MK22FA12.o [53]
  .text                  ro code     0x2'0024       0x8  startup_MK22FA12.o [53]
  .text                  ro code     0x2'002c       0x8  startup_MK22FA12.o [53]
  .text                  ro code     0x2'0034       0x8  startup_MK22FA12.o [53]
  .text                  ro code     0x2'003c       0x8  startup_MK22FA12.o [53]
  .text                  ro code     0x2'0044       0x8  startup_MK22FA12.o [53]
  .text                  ro code     0x2'004c       0x8  startup_MK22FA12.o [53]
  .text                  ro code     0x2'0054       0x8  startup_MK22FA12.o [53]
  .text                  ro code     0x2'005c       0x8  startup_MK22FA12.o [53]
  .text                  ro code     0x2'0064       0x8  startup_MK22FA12.o [53]
  .text                  ro code     0x2'006c       0x8  startup_MK22FA12.o [53]
  .text                  ro code     0x2'0074       0x8  startup_MK22FA12.o [53]
  .text                  ro code     0x2'007c       0x8  startup_MK22FA12.o [53]
  .text                  ro code     0x2'0084       0x8  startup_MK22FA12.o [53]
  .text                  ro code     0x2'008c       0x8  startup_MK22FA12.o [53]
  .text                  ro code     0x2'0094       0x8  startup_MK22FA12.o [53]
  .text                  ro code     0x2'009c       0x8  startup_MK22FA12.o [53]
  .text                  ro code     0x2'00a4       0x8  startup_MK22FA12.o [53]
  .text                  ro code     0x2'00ac       0x8  startup_MK22FA12.o [53]
  .text                  ro code     0x2'00b4       0x8  startup_MK22FA12.o [53]
  .text                  ro code     0x2'00bc       0x8  startup_MK22FA12.o [53]
  .text                  ro code     0x2'00c4       0x8  startup_MK22FA12.o [53]
  .text                  ro code     0x2'00cc       0x8  startup_MK22FA12.o [53]
  .text                  ro code     0x2'00d4       0x8  startup_MK22FA12.o [53]
  .text                  ro code     0x2'00dc       0x8  startup_MK22FA12.o [53]
  .text                  ro code     0x2'00e4       0x8  startup_MK22FA12.o [53]
  .text                  ro code     0x2'00ec       0x8  startup_MK22FA12.o [53]
  .text                  ro code     0x2'00f4       0x8  startup_MK22FA12.o [53]
  .text                  ro code     0x2'00fc       0x8  startup_MK22FA12.o [53]
  .text                  ro code     0x2'0104       0x8  startup_MK22FA12.o [53]
  .text                  ro code     0x2'010c       0x8  startup_MK22FA12.o [53]
  .text                  ro code     0x2'0114       0x8  startup_MK22FA12.o [53]
  SHT$$PREINIT_ARRAY                 0x2'011c       0x0  <Block>
  SHT$$INIT_ARRAY                    0x2'011c       0x8  <Block>
    .init_array          const       0x2'011c       0x4  ZigbeeAPI.o [55]
    .init_array          const       0x2'0120       0x4  XBee.o [55]
  __iar_tls$$INIT_ARRAY              0x2'0124       0x0  <Block>
  .text                  ro code     0x2'0124       0x4  startup_MK22FA12.o [53]
  .text                  ro code     0x2'0128       0x0  cstart_call_dtors.o [59]
  .rodata                const       0x2'0128       0x0  zero_init3.o [59]
  .rodata                const       0x2'0128       0x0  lz77_init.o [59]
  Initializer bytes      const       0x2'0128     0x4f8  <for P3 s0>
                                   - 0x2'0620  0x2'0210

"P3", part 1 of 4:                                0xe08
  P3 s0                           0x1fff'0000     0xe08  <Init block>
    .data                inited   0x1fff'0000     0x620  APIProcessing.o [5]
    .data                inited   0x1fff'0620     0x268  SDcardoperation.o [49]
    .data                inited   0x1fff'0888     0x124  RobotMain.o [3]
    .data                inited   0x1fff'09ac      0xcc  APIProcessing.o [5]
    .data                inited   0x1fff'0a78      0x5c  RobotOperation.o [43]
    .data                inited   0x1fff'0ad4      0x5c  usr_flash.o [17]
    .data                inited   0x1fff'0b30      0x54  Led1.o [22]
    .data                inited   0x1fff'0b84      0x54  Led3.o [24]
    .data                inited   0x1fff'0bd8      0x50  rfid.o [38]
    .data                inited   0x1fff'0c28      0x48  xlocale_c.o [56]
    .data                inited   0x1fff'0c70      0x44  Led2.o [23]
    .data                inited   0x1fff'0cb4      0x38  xlocale_c.o [56]
    .data                inited   0x1fff'0cec      0x28  Pwm1.o [29]
    .data                inited   0x1fff'0d14      0x24  BrushControl.o [42]
    .data                inited   0x1fff'0d38      0x24  ZigbeeAPIMode.o [12]
    .data                inited   0x1fff'0d5c      0x20  RobotControl.o [41]
    .data                inited   0x1fff'0d7c      0x14  ResponseAPIProcess.o [5]
    .data                inited   0x1fff'0d90      0x18  ZigbeeUart.o [13]
    .data                inited   0x1fff'0da8      0x10  EventLoggerFlash.o [19]
    .data                inited   0x1fff'0db8      0x10  fsl_clock.o [2]
    .data                inited   0x1fff'0dc8       0xc  BrushMotorControl.o [26]
    .data                inited   0x1fff'0dd4       0xc  Motor1Control.o [28]
    .data                inited   0x1fff'0de0       0xc  Motor2Control.o [30]
    .data                inited   0x1fff'0dec       0x8  Led2.o [23]
    .data                inited   0x1fff'0df4       0x8  Relay.o [40]
    .data                inited   0x1fff'0dfc       0x4  system_MK22FA12.o [53]
    .data                inited   0x1fff'0e00       0x2  diskio.o [49]
    .data                inited   0x1fff'0e02       0x2  Rtc.o [39]
    .data                inited   0x1fff'0e04       0x1  CommCommon.o [6]
    .data                inited   0x1fff'0e05       0x1  EdgeSenseCommon.o [18]
    .data                inited   0x1fff'0e06       0x1  Pwm1.o [29]
    .data                inited   0x1fff'0e07       0x1  rfid.o [38]
                                - 0x1fff'0e08     0xe08

"P3", part 2 of 4:                               0x3938
  .bss                   zero     0x1fff'0e08    0x2914  ConfigUart.o [8]
  .bss                   zero     0x1fff'371c     0x7e0  BmsUart.o [7]
  .bss                   zero     0x1fff'3efc     0x7e0  DebugUart.o [11]
  .bss                   zero     0x1fff'46dc      0x64  APIProcessing.o [5]
                                - 0x1fff'4740    0x3938

"P3", part 3 of 4:                               0x61a8
  .iar.dynexit                    0x1fff'4740     0x1a4  <Block>
    .iar.dynexit         uninit   0x1fff'4740       0xc  cppinit.o [56]
    .iar.dynexit         uninit   0x1fff'474c     0x198  <Block tail>
  CSTACK                          0x1fff'48e8    0x2000  <Block>
    CSTACK               uninit   0x1fff'48e8    0x2000  <Block tail>
  HEAP                            0x1fff'68e8    0x4000  <Block>
    HEAP                 uninit   0x1fff'68e8    0x4000  <Block tail>
                                - 0x1fff'a8e8    0x61a8

"P3", part 4 of 4:                               0xbb84
  .bss                   zero     0x2000'0000    0x4e28  SDcardoperation.o [49]
  .bss                   zero     0x2000'4e28    0x2738  APIProcessing.o [5]
  .bss                   zero     0x2000'7560    0x2710  ConfigAPIProcess.o [9]
  .bss                   zero     0x2000'9c70     0x6f8  RobotOperation.o [43]
  .bss                   zero     0x2000'a368     0x5a0  RobotOperation.o [43]
  .bss                   zero     0x2000'a908     0x3f8  ZigbeeUart.o [13]
  .bss                   zero     0x2000'ad00     0x208  RobotMain.o [3]
  .bss                   zero     0x2000'af08     0x1d8  dlmalloc.o [56]
  .bss                   zero     0x2000'b0e0      0xf0  RobotOperation.o [43]
  .bss                   zero     0x2000'b1d0      0xd0  DigiLogger.o [55]
  .bss                   zero     0x2000'b2a0      0xc8  APIProcessing.o [5]
  .bss                   zero     0x2000'b368      0xc8  RobotOperation.o [43]
  .bss                   zero     0x2000'b430      0x8c  fsl_flash.o [2]
  .bss                   zero     0x2000'b4bc      0x3c  FaultProcess.o [46]
  .bss                   zero     0x2000'b4f8      0x60  ZigbeeAPI.o [55]
  .bss                   zero     0x2000'b558      0x58  FaultProcess.o [46]
  .bss                   zero     0x2000'b5b0      0x58  ZigbeeAPIMode.o [12]
  .bss                   zero     0x2000'b608      0x48  APIProcessing.o [5]
  .bss                   zero     0x2000'b650      0x38  bat_i2c.o [25]
  .bss                   zero     0x2000'b688      0x38  MotCurrentFaultCommon.o [47]
  .bss                   zero     0x2000'b6c0      0x2c  adc.o [4]
  .bss                   zero     0x2000'b6ec      0x2c  i2c_init.o [20]
  .bss                   zero     0x2000'b718      0x2c  XBee.o [55]
  .bss                   zero     0x2000'b744      0x28  RobotOperation.o [43]
  .bss                   zero     0x2000'b76c      0x24  APIProcessing.o [5]
  .bss                   zero     0x2000'b790      0x24  APIProcessing.o [5]
  .bss                   zero     0x2000'b7b4      0x24  DefaultValues.o [16]
  .bss                   zero     0x2000'b7d8      0x24  RobotControl.o [41]
  .bss                   zero     0x2000'b7fc      0x24  RobotControl.o [41]
  .bss                   zero     0x2000'b820      0x20  MotCurrentFaultCommon.o [47]
  .bss                   zero     0x2000'b840      0x1d  CycleMode.o [45]
  .bss                   zero     0x2000'b85d       0x6  spi.o [50]
  .bss                   zero     0x2000'b863       0x1  BrushMotorControl_hal.o [26]
  .bss                   zero     0x2000'b864      0x1c  CycleMode.o [45]
  .bss                   zero     0x2000'b880      0x1c  fsl_uart.o [2]
  .bss                   zero     0x2000'b89c      0x1c  RobotControl.o [41]
  .bss                   zero     0x2000'b8b8      0x1c  RobotControl.o [41]
  .bss                   zero     0x2000'b8d4      0x1c  RobotOperation.o [43]
  .bss                   zero     0x2000'b8f0      0x1c  RobotOperation.o [43]
  .bss                   zero     0x2000'b90c      0x1c  ZigbeeAPIHAL.o [55]
  .bss                   zero     0x2000'b928      0x18  LTC4015_main.o [25]
  .bss                   zero     0x2000'b940      0x18  RobotOperation.o [43]
  .bss                   zero     0x2000'b958      0x18  dlmalloc.o [56]
  .bss                   zero     0x2000'b970      0x14  fsl_i2c.o [2]
  .bss                   zero     0x2000'b984      0x14  LTC4015.o [25]
  .bss                   zero     0x2000'b998      0x10  BrushControl.o [42]
  .bss                   zero     0x2000'b9a8      0x10  Mot1CurrentFault.o [47]
  .bss                   zero     0x2000'b9b8      0x10  Mot2CurrentFault.o [47]
  .bss                   zero     0x2000'b9c8      0x10  Mot3CurrentFault.o [47]
  .bss                   zero     0x2000'b9d8      0x10  MotCurrentFaultCommon.o [47]
  .bss                   zero     0x2000'b9e8      0x10  ResponseAPIProcess.o [5]
  .bss                   zero     0x2000'b9f8      0x10  temp_sensors.o [52]
  .bss                   zero     0x2000'ba08       0xc  BrushControl.o [42]
  .bss                   zero     0x2000'ba14       0xc  BrushControl.o [42]
  .bss                   zero     0x2000'ba20       0xc  fsl_dspi.o [2]
  .bss                   zero     0x2000'ba2c       0xc  fsl_dspi.o [2]
  .bss                   zero     0x2000'ba38       0xc  MotCurrentFaultCommon.o [47]
  .bss                   zero     0x2000'ba44       0xc  proximity.o [36]
  .bss                   zero     0x2000'ba50       0xc  QuadDecoder.o [48]
  .bss                   zero     0x2000'ba5c       0xc  RotateSense1.o [48]
  .bss                   zero     0x2000'ba68       0xc  RotateSense2.o [48]
  .bss                   zero     0x2000'ba74       0xc  SDcardoperation.o [49]
  .bss                   zero     0x2000'ba80       0xc  SDcardoperation.o [49]
  .bss                   zero     0x2000'ba8c       0x4  APIProcessing.o [5]
  .bss                   zero     0x2000'ba90       0x8  APIProcessing.o [5]
  .bss                   zero     0x2000'ba98       0x8  AutoSchedule.o [44]
  .bss                   zero     0x2000'baa0       0x8  CommCommon.o [6]
  .bss                   zero     0x2000'baa8       0x8  delay.o [15]
  .bss                   zero     0x2000'bab0       0x8  EdgeSense1.o [18]
  .bss                   zero     0x2000'bab8       0x8  EdgeSense2.o [18]
  .bss                   zero     0x2000'bac0       0x8  ff.o [49]
  .bss                   zero     0x2000'bac8       0x8  fsl_flash.o [2]
  .bss                   zero     0x2000'bad0       0x8  fsl_io.o [54]
  .bss                   zero     0x2000'bad8       0x8  Led1.o [22]
  .bss                   zero     0x2000'bae0       0x8  Led3.o [24]
  .bss                   zero     0x2000'bae8       0x8  LPTimer.o [33]
  .bss                   zero     0x2000'baf0       0x8  MotCurrentFaultCommon.o [47]
  .bss                   zero     0x2000'baf8       0x8  MotCurrentFaultCommon.o [47]
  .bss                   zero     0x2000'bb00       0x8  rfid.o [38]
  .bss                   zero     0x2000'bb08       0x8  RobotControl.o [41]
  .bss                   zero     0x2000'bb10       0x8  RobotOperation.o [43]
  .bss                   zero     0x2000'bb18       0x8  SDcardoperation.o [49]
  .bss                   zero     0x2000'bb20       0x8  temp_sensors.o [52]
  .bss                   zero     0x2000'bb28       0x4  APIProcessing.o [5]
  .bss                   zero     0x2000'bb2c       0x4  APIProcessing.o [5]
  .bss                   zero     0x2000'bb30       0x4  APIProcessing.o [5]
  .bss                   zero     0x2000'bb34       0x4  ConfigUart.o [8]
  .bss                   zero     0x2000'bb38       0x4  eeprom.o [17]
  .bss                   zero     0x2000'bb3c       0x4  eepromStore.o [17]
  .bss                   zero     0x2000'bb40       0x4  i2c_init.o [20]
  .bss                   zero     0x2000'bb44       0x4  MotCurrentFaultCommon.o [47]
  .bss                   zero     0x2000'bb48       0x4  MotCurrentFaultCommon.o [47]
  .bss                   zero     0x2000'bb4c       0x4  MotCurrentFaultCommon.o [47]
  .bss                   zero     0x2000'bb50       0x4  QuadDecoder.o [48]
  .bss                   zero     0x2000'bb54       0x4  RobotMain.o [3]
  .bss                   zero     0x2000'bb58       0x4  WDTimer.o [35]
  .bss                   zero     0x2000'bb5c       0x4  Timer.o [55]
  .bss                   zero     0x2000'bb60       0x4  cppinit.o [56]
  .bss                   zero     0x2000'bb64       0x4  cppinit.o [56]
  .bss                   zero     0x2000'bb68       0x4  new.o [57]
  .bss                   zero     0x2000'bb6c       0x4  xfail_s.o [56]
  .bss                   zero     0x2000'bb70       0x4  xgetmemchunk.o [56]
  .bss                   zero     0x2000'bb74       0x2  APIProcessing.o [5]
  .bss                   zero     0x2000'bb76       0x1  BrushPwm.o [27]
  .bss                   zero     0x2000'bb77       0x1  BrushPwm.o [27]
  .bss                   zero     0x2000'bb78       0x1  FaultProcess.o [46]
  .bss                   zero     0x2000'bb79       0x1  Motor1Control_hal.o [28]
  .bss                   zero     0x2000'bb7a       0x1  Motor2Control_hal.o [30]
  .bss                   zero     0x2000'bb7b       0x1  Pwm2.o [31]
  .bss                   zero     0x2000'bb7c       0x1  Pwm2.o [31]
  .bss                   zero     0x2000'bb7d       0x1  QuadDecoder.o [48]
  .bss                   zero     0x2000'bb7e       0x1  ResponseAPIProcess.o [5]
  .bss                   zero     0x2000'bb7f       0x1  rfid.o [38]
  .bss                   zero     0x2000'bb80       0x1  Rtc.o [39]
  .bss                   zero     0x2000'bb81       0x1  SDcardoperation.o [49]
  .bss                   zero     0x2000'bb82       0x1  switch.o [51]
  .bss                   zero     0x2000'bb83       0x1  ApiFrame.o [55]
                                - 0x2000'bb84    0xbb84

Unused ranges:

         From           To      Size
         ----           --      ----
     0x2'0620     0xf'ffff  0xd'f9e0
  0x1fff'a8e8  0x1fff'ffff    0x5718
  0x2000'bb84  0x2000'ffff    0x447c


*******************************************************************************
*** INIT TABLE
***

          Address      Size
          -------      ----
Zero (__iar_zero_init3)
    2 destination ranges, total size 0xf4bc:
          0x1fff'0e08  0x3938
          0x2000'0000  0xbb84

Copy/lz77 (__iar_lz77_init3)
    1 source range, total size 0x4f8 (35% of destination):
             0x2'0128   0x4f8
    1 destination range, total size 0xe08:
          0x1fff'0000   0xe08

Extra (__iar_cstart_call_ctors)



*******************************************************************************
*** MODULE SUMMARY
***

    Module                    ro code  ro data  rw data
    ------                    -------  -------  -------
command line/config:
    ---------------------------------------------------
    Total:

F:\PROJECTS\GANGES\2023\27.07.2023\PHASE 3\Solar Cleaner & Track Changer\CODE_G3_TC_08.06.2023\TRACKCHANGER_G3\iar\release\obj\board: [1]
    clock_config.o                124
    pin_mux.o                     538      140
    ---------------------------------------------------
    Total:                        662      140

F:\PROJECTS\GANGES\2023\27.07.2023\PHASE 3\Solar Cleaner & Track Changer\CODE_G3_TC_08.06.2023\TRACKCHANGER_G3\iar\release\obj\drivers: [2]
    fsl_clock.o                 1'440      138       16
    fsl_dspi.o                    200      192       24
    fsl_flash.o                 1'468               148
    fsl_ftm.o                   1'848      132
    fsl_gpio.o                    196      192
    fsl_i2c.o                   1'564      376       20
    fsl_lptmr.o                   220      196
    fsl_rtc.o                     936      132
    fsl_uart.o                  1'012      788       28
    fsl_wdog.o                    228      132
    ---------------------------------------------------
    Total:                      9'112    2'278      236

F:\PROJECTS\GANGES\2023\27.07.2023\PHASE 3\Solar Cleaner & Track Changer\CODE_G3_TC_08.06.2023\TRACKCHANGER_G3\iar\release\obj\source: [3]
    RobotMain.o                 1'672      235      816
    ---------------------------------------------------
    Total:                      1'672      235      816

F:\PROJECTS\GANGES\2023\27.07.2023\PHASE 3\Solar Cleaner & Track Changer\CODE_G3_TC_08.06.2023\TRACKCHANGER_G3\iar\release\obj\source\ADC: [4]
    adc.o                         332      140       44
    ---------------------------------------------------
    Total:                        332      140       44

F:\PROJECTS\GANGES\2023\27.07.2023\PHASE 3\Solar Cleaner & Track Changer\CODE_G3_TC_08.06.2023\TRACKCHANGER_G3\iar\release\obj\source\API Processing: [5]
    APIProcessing.o            28'216    3'820   12'282
    ResponseAPIProcess.o          656       43       37
    ValuesValidate.o              224
    ---------------------------------------------------
    Total:                     29'096    3'863   12'319

F:\PROJECTS\GANGES\2023\27.07.2023\PHASE 3\Solar Cleaner & Track Changer\CODE_G3_TC_08.06.2023\TRACKCHANGER_G3\iar\release\obj\source\Communication: [6]
    CommCommon.o                  160                 9
    ---------------------------------------------------
    Total:                        160                 9

F:\PROJECTS\GANGES\2023\27.07.2023\PHASE 3\Solar Cleaner & Track Changer\CODE_G3_TC_08.06.2023\TRACKCHANGER_G3\iar\release\obj\source\Communication\BmsUart: [7]
    BmsUart.o                     336             2'016
    ---------------------------------------------------
    Total:                        336             2'016

F:\PROJECTS\GANGES\2023\27.07.2023\PHASE 3\Solar Cleaner & Track Changer\CODE_G3_TC_08.06.2023\TRACKCHANGER_G3\iar\release\obj\source\Communication\ConfigUart: [8]
    ConfigUart.o                  604            10'520
    ---------------------------------------------------
    Total:                        604            10'520

F:\PROJECTS\GANGES\2023\27.07.2023\PHASE 3\Solar Cleaner & Track Changer\CODE_G3_TC_08.06.2023\TRACKCHANGER_G3\iar\release\obj\source\Communication\ConfigUart\ConfigUart API Process: [9]
    ConfigAPIProcess.o            712            10'000
    ---------------------------------------------------
    Total:                        712            10'000

F:\PROJECTS\GANGES\2023\27.07.2023\PHASE 3\Solar Cleaner & Track Changer\CODE_G3_TC_08.06.2023\TRACKCHANGER_G3\iar\release\obj\source\Communication\ConfigUart\ConfigUart API Process\JSON Parser: [10]
    fun_json.o                    868
    json.o                        544       48
    ---------------------------------------------------
    Total:                      1'412       48

F:\PROJECTS\GANGES\2023\27.07.2023\PHASE 3\Solar Cleaner & Track Changer\CODE_G3_TC_08.06.2023\TRACKCHANGER_G3\iar\release\obj\source\Communication\DebugUart: [11]
    DebugUart.o                   484             2'016
    ---------------------------------------------------
    Total:                        484             2'016

F:\PROJECTS\GANGES\2023\27.07.2023\PHASE 3\Solar Cleaner & Track Changer\CODE_G3_TC_08.06.2023\TRACKCHANGER_G3\iar\release\obj\source\Communication\ZigbeeAPIMode: [12]
    ZigbeeAPIMode.o             1'624      381      124
    ---------------------------------------------------
    Total:                      1'624      381      124

F:\PROJECTS\GANGES\2023\27.07.2023\PHASE 3\Solar Cleaner & Track Changer\CODE_G3_TC_08.06.2023\TRACKCHANGER_G3\iar\release\obj\source\Communication\ZigbeeUart: [13]
    ZigbeeUart.o                  614        9    1'040
    ---------------------------------------------------
    Total:                        614        9    1'040

F:\PROJECTS\GANGES\2023\27.07.2023\PHASE 3\Solar Cleaner & Track Changer\CODE_G3_TC_08.06.2023\TRACKCHANGER_G3\iar\release\obj\source\DEBUG: [14]
    serial_debug.o                  6
    ---------------------------------------------------
    Total:                          6

F:\PROJECTS\GANGES\2023\27.07.2023\PHASE 3\Solar Cleaner & Track Changer\CODE_G3_TC_08.06.2023\TRACKCHANGER_G3\iar\release\obj\source\DELAY: [15]
    delay.o                        64                 8
    ---------------------------------------------------
    Total:                         64                 8

F:\PROJECTS\GANGES\2023\27.07.2023\PHASE 3\Solar Cleaner & Track Changer\CODE_G3_TC_08.06.2023\TRACKCHANGER_G3\iar\release\obj\source\DefaultValues: [16]
    DefaultValues.o               808                36
    ---------------------------------------------------
    Total:                        808                36

F:\PROJECTS\GANGES\2023\27.07.2023\PHASE 3\Solar Cleaner & Track Changer\CODE_G3_TC_08.06.2023\TRACKCHANGER_G3\iar\release\obj\source\EEPROM: [17]
    EepromMain.o                  488
    eeprom.o                      860                 4
    eepromStdtoHalDriver.o         64
    eepromStore.o               6'536                 4
    usr_flash.o                   700      329       92
    ---------------------------------------------------
    Total:                      8'648      329      100

F:\PROJECTS\GANGES\2023\27.07.2023\PHASE 3\Solar Cleaner & Track Changer\CODE_G3_TC_08.06.2023\TRACKCHANGER_G3\iar\release\obj\source\EdgeSensor: [18]
    EdgeSense1.o                  170                 8
    EdgeSense2.o                  170                 8
    EdgeSenseCommon.o             114        1        1
    ---------------------------------------------------
    Total:                        454        1       17

F:\PROJECTS\GANGES\2023\27.07.2023\PHASE 3\Solar Cleaner & Track Changer\CODE_G3_TC_08.06.2023\TRACKCHANGER_G3\iar\release\obj\source\EventLogger: [19]
    EventLogger.o                  10
    EventLoggerFlash.o            472       45       16
    ---------------------------------------------------
    Total:                        482       45       16

F:\PROJECTS\GANGES\2023\27.07.2023\PHASE 3\Solar Cleaner & Track Changer\CODE_G3_TC_08.06.2023\TRACKCHANGER_G3\iar\release\obj\source\I2C: [20]
    i2c_init.o                    444                48
    ---------------------------------------------------
    Total:                        444                48

F:\PROJECTS\GANGES\2023\27.07.2023\PHASE 3\Solar Cleaner & Track Changer\CODE_G3_TC_08.06.2023\TRACKCHANGER_G3\iar\release\obj\source\LED: [21]
    LedCommon.o                    54
    ---------------------------------------------------
    Total:                         54

F:\PROJECTS\GANGES\2023\27.07.2023\PHASE 3\Solar Cleaner & Track Changer\CODE_G3_TC_08.06.2023\TRACKCHANGER_G3\iar\release\obj\source\LED\LED1: [22]
    Led1.o                        438       29       92
    ---------------------------------------------------
    Total:                        438       29       92

F:\PROJECTS\GANGES\2023\27.07.2023\PHASE 3\Solar Cleaner & Track Changer\CODE_G3_TC_08.06.2023\TRACKCHANGER_G3\iar\release\obj\source\LED\LED2: [23]
    Led2.o                        450       26       76
    ---------------------------------------------------
    Total:                        450       26       76

F:\PROJECTS\GANGES\2023\27.07.2023\PHASE 3\Solar Cleaner & Track Changer\CODE_G3_TC_08.06.2023\TRACKCHANGER_G3\iar\release\obj\source\LED\LED3: [24]
    Led3.o                        478       30       92
    ---------------------------------------------------
    Total:                        478       30       92

F:\PROJECTS\GANGES\2023\27.07.2023\PHASE 3\Solar Cleaner & Track Changer\CODE_G3_TC_08.06.2023\TRACKCHANGER_G3\iar\release\obj\source\LTC4015: [25]
    LTC4015.o                     204                20
    LTC4015_main.o              1'272       44       24
    bat_i2c.o                     706                56
    store_soc.o                   212
    ---------------------------------------------------
    Total:                      2'394       44      100

F:\PROJECTS\GANGES\2023\27.07.2023\PHASE 3\Solar Cleaner & Track Changer\CODE_G3_TC_08.06.2023\TRACKCHANGER_G3\iar\release\obj\source\MotorControl\BrushMotor: [26]
    BrushMotorControl.o           300        4       12
    BrushMotorControl_hal.o       156                 1
    ---------------------------------------------------
    Total:                        456        4       13

F:\PROJECTS\GANGES\2023\27.07.2023\PHASE 3\Solar Cleaner & Track Changer\CODE_G3_TC_08.06.2023\TRACKCHANGER_G3\iar\release\obj\source\MotorControl\BrushMotor\BrushPwm: [27]
    BrushPwm.o                    120                 2
    ---------------------------------------------------
    Total:                        120                 2

F:\PROJECTS\GANGES\2023\27.07.2023\PHASE 3\Solar Cleaner & Track Changer\CODE_G3_TC_08.06.2023\TRACKCHANGER_G3\iar\release\obj\source\MotorControl\Motor1: [28]
    Motor1Control.o               296        4       12
    Motor1Control_hal.o           250                 1
    ---------------------------------------------------
    Total:                        546        4       13

F:\PROJECTS\GANGES\2023\27.07.2023\PHASE 3\Solar Cleaner & Track Changer\CODE_G3_TC_08.06.2023\TRACKCHANGER_G3\iar\release\obj\source\MotorControl\Motor1\Pwm1: [29]
    Pwm1.o                        452       14       41
    ---------------------------------------------------
    Total:                        452       14       41

F:\PROJECTS\GANGES\2023\27.07.2023\PHASE 3\Solar Cleaner & Track Changer\CODE_G3_TC_08.06.2023\TRACKCHANGER_G3\iar\release\obj\source\MotorControl\Motor2: [30]
    Motor2Control.o               308        5       12
    Motor2Control_hal.o           176                 1
    ---------------------------------------------------
    Total:                        484        5       13

F:\PROJECTS\GANGES\2023\27.07.2023\PHASE 3\Solar Cleaner & Track Changer\CODE_G3_TC_08.06.2023\TRACKCHANGER_G3\iar\release\obj\source\MotorControl\Motor2\Pwm2: [31]
    Pwm2.o                        112                 2
    ---------------------------------------------------
    Total:                        112                 2

F:\PROJECTS\GANGES\2023\27.07.2023\PHASE 3\Solar Cleaner & Track Changer\CODE_G3_TC_08.06.2023\TRACKCHANGER_G3\iar\release\obj\source\OTHER: [32]
    NumStrConversion.o            816
    ---------------------------------------------------
    Total:                        816

F:\PROJECTS\GANGES\2023\27.07.2023\PHASE 3\Solar Cleaner & Track Changer\CODE_G3_TC_08.06.2023\TRACKCHANGER_G3\iar\release\obj\source\OTHER\LPTimer: [33]
    LPTimer.o                     240      140        8
    ---------------------------------------------------
    Total:                        240      140        8

F:\PROJECTS\GANGES\2023\27.07.2023\PHASE 3\Solar Cleaner & Track Changer\CODE_G3_TC_08.06.2023\TRACKCHANGER_G3\iar\release\obj\source\OTHER\VBatREG: [34]
    VBatReg.o                      16
    ---------------------------------------------------
    Total:                         16

F:\PROJECTS\GANGES\2023\27.07.2023\PHASE 3\Solar Cleaner & Track Changer\CODE_G3_TC_08.06.2023\TRACKCHANGER_G3\iar\release\obj\source\OTHER\WDTimer: [35]
    WDTimer.o                     164                 4
    ---------------------------------------------------
    Total:                        164                 4

F:\PROJECTS\GANGES\2023\27.07.2023\PHASE 3\Solar Cleaner & Track Changer\CODE_G3_TC_08.06.2023\TRACKCHANGER_G3\iar\release\obj\source\PROXIMITY: [36]
    cleanerdetect1.o               66
    cleanerdetect2.o               66
    cleanerdetectcommon.o          52
    proximity.o                   214                12
    ---------------------------------------------------
    Total:                        398                12

F:\PROJECTS\GANGES\2023\27.07.2023\PHASE 3\Solar Cleaner & Track Changer\CODE_G3_TC_08.06.2023\TRACKCHANGER_G3\iar\release\obj\source\PortInterrupt: [37]
    PortInterrupt.o               144
    ---------------------------------------------------
    Total:                        144

F:\PROJECTS\GANGES\2023\27.07.2023\PHASE 3\Solar Cleaner & Track Changer\CODE_G3_TC_08.06.2023\TRACKCHANGER_G3\iar\release\obj\source\RFID: [38]
    rfid.o                      1'404       30       90
    ---------------------------------------------------
    Total:                      1'404       30       90

F:\PROJECTS\GANGES\2023\27.07.2023\PHASE 3\Solar Cleaner & Track Changer\CODE_G3_TC_08.06.2023\TRACKCHANGER_G3\iar\release\obj\source\RTC: [39]
    Rtc.o                         828        1        3
    ---------------------------------------------------
    Total:                        828        1        3

F:\PROJECTS\GANGES\2023\27.07.2023\PHASE 3\Solar Cleaner & Track Changer\CODE_G3_TC_08.06.2023\TRACKCHANGER_G3\iar\release\obj\source\Relay: [40]
    Relay.o                       196        3        8
    ---------------------------------------------------
    Total:                        196        3        8

F:\PROJECTS\GANGES\2023\27.07.2023\PHASE 3\Solar Cleaner & Track Changer\CODE_G3_TC_08.06.2023\TRACKCHANGER_G3\iar\release\obj\source\RobotControl: [41]
    RobotControl.o              2'928       99      168
    ---------------------------------------------------
    Total:                      2'928       99      168

F:\PROJECTS\GANGES\2023\27.07.2023\PHASE 3\Solar Cleaner & Track Changer\CODE_G3_TC_08.06.2023\TRACKCHANGER_G3\iar\release\obj\source\RobotControl\BrushControl: [42]
    BrushControl.o              1'196       49       76
    ---------------------------------------------------
    Total:                      1'196       49       76

F:\PROJECTS\GANGES\2023\27.07.2023\PHASE 3\Solar Cleaner & Track Changer\CODE_G3_TC_08.06.2023\TRACKCHANGER_G3\iar\release\obj\source\RobotOperation: [43]
    RobotOperation.o            7'300    1'328    3'884
    ---------------------------------------------------
    Total:                      7'300    1'328    3'884

F:\PROJECTS\GANGES\2023\27.07.2023\PHASE 3\Solar Cleaner & Track Changer\CODE_G3_TC_08.06.2023\TRACKCHANGER_G3\iar\release\obj\source\RobotOperation\AutoSchedule: [44]
    AutoSchedule.o                168                 8
    ---------------------------------------------------
    Total:                        168                 8

F:\PROJECTS\GANGES\2023\27.07.2023\PHASE 3\Solar Cleaner & Track Changer\CODE_G3_TC_08.06.2023\TRACKCHANGER_G3\iar\release\obj\source\RobotOperation\CycleMode: [45]
    CycleMode.o                   376                57
    ---------------------------------------------------
    Total:                        376                57

F:\PROJECTS\GANGES\2023\27.07.2023\PHASE 3\Solar Cleaner & Track Changer\CODE_G3_TC_08.06.2023\TRACKCHANGER_G3\iar\release\obj\source\RobotOperation\FaultProcess: [46]
    FaultProcess.o              1'176       36      149
    ---------------------------------------------------
    Total:                      1'176       36      149

F:\PROJECTS\GANGES\2023\27.07.2023\PHASE 3\Solar Cleaner & Track Changer\CODE_G3_TC_08.06.2023\TRACKCHANGER_G3\iar\release\obj\source\RobotOperation\FaultProcess\OverCurrentFault: [47]
    Mot1CurrentFault.o            104                16
    Mot2CurrentFault.o            104                16
    Mot3CurrentFault.o            104                16
    MotCurrentFaultCommon.o       144               144
    ---------------------------------------------------
    Total:                        456               192

F:\PROJECTS\GANGES\2023\27.07.2023\PHASE 3\Solar Cleaner & Track Changer\CODE_G3_TC_08.06.2023\TRACKCHANGER_G3\iar\release\obj\source\RotateSense: [48]
    QuadDecoder.o                 316                17
    RotateSense1.o                242                12
    RotateSense2.o                230                12
    RotateSenseCommon.o           268
    ---------------------------------------------------
    Total:                      1'056                41

F:\PROJECTS\GANGES\2023\27.07.2023\PHASE 3\Solar Cleaner & Track Changer\CODE_G3_TC_08.06.2023\TRACKCHANGER_G3\iar\release\obj\source\SDFAT: [49]
    SDcardoperation.o           3'700      254   20'657
    diskio.o                    1'672                 2
    ff.o                        4'560                 8
    ---------------------------------------------------
    Total:                      9'932      254   20'667

F:\PROJECTS\GANGES\2023\27.07.2023\PHASE 3\Solar Cleaner & Track Changer\CODE_G3_TC_08.06.2023\TRACKCHANGER_G3\iar\release\obj\source\SPI: [50]
    spi.o                         330                 6
    ---------------------------------------------------
    Total:                        330                 6

F:\PROJECTS\GANGES\2023\27.07.2023\PHASE 3\Solar Cleaner & Track Changer\CODE_G3_TC_08.06.2023\TRACKCHANGER_G3\iar\release\obj\source\SWITCH: [51]
    switch.o                       70                 1
    ---------------------------------------------------
    Total:                         70                 1

F:\PROJECTS\GANGES\2023\27.07.2023\PHASE 3\Solar Cleaner & Track Changer\CODE_G3_TC_08.06.2023\TRACKCHANGER_G3\iar\release\obj\source\TEMP SENSOR: [52]
    temp_sensors.o                172                24
    ---------------------------------------------------
    Total:                        172                24

F:\PROJECTS\GANGES\2023\27.07.2023\PHASE 3\Solar Cleaner & Track Changer\CODE_G3_TC_08.06.2023\TRACKCHANGER_G3\iar\release\obj\startup: [53]
    startup_MK22FA12.o          1'414
    system_MK22FA12.o              40        2        4
    ---------------------------------------------------
    Total:                      1'454        2        4

F:\PROJECTS\GANGES\2023\27.07.2023\PHASE 3\Solar Cleaner & Track Changer\CODE_G3_TC_08.06.2023\TRACKCHANGER_G3\iar\release\obj\utilities: [54]
    fsl_assert.o                   24       44
    fsl_debug_console.o            96
    fsl_io.o                       56                 8
    fsl_log.o                      76      136
    fsl_str.o                     596
    ---------------------------------------------------
    Total:                        848      180        8

XbeeZigbeeAPI.a: [55]
    ApiFrame.o                    284      160        1
    AtCmdFrame.o                  360      160
    AtCommands.o                  398       36
    DigiLogger.o                   78       20      208
    DigiLoggerSerial.o             46       20
    FH_IoDataSampleZB.o             6
    FH_RxPacketZB.o               138       20
    FrameBuffer.o                 428      168
    FrameHandler.o                  4
    RadioConfig.o                 200
    RawSerial.o                    14
    RemoteXBee.o                   38
    Timer.o                       100                 4
    Utils.o                        72
    XBee.o                      2'320      408       44
    XBeeZB.o                    1'240      624
    ZigbeeAPI.o                   776      408       96
    ZigbeeAPIHAL.o                140                28
    ZigbeeApi_serial_debug.o       22
    ZigbeeFrames.o                106
    ---------------------------------------------------
    Total:                      6'770    2'024      381

dl7M_tlf.a: [56]
    abort.o                         6
    cppinit.o                     160                20
    dlmalloc.o                  5'332               496
    exit.o                          4
    heaptramp0.o                    4
    iar_Stoflt.o                  440
    iar_Stolx.o                   144
    iar_Stopfx.o                  290
    iar_Stoullx.o                 434       80
    iar_Stoulx.o                  342       80
    iar_Stoxflt.o                 520
    isalpha.o                      20
    isspace.o                      20
    snprintf.o                     68
    strcat.o                       30
    strncmp.o                      40
    strstr.o                       44
    tolower.o                      20
    vsnprint.o                     60
    xfail_s.o                      64                 4
    xgetmemchunk.o                 44                 4
    xlocale_c.o                    76       50      128
    xprintfsmall_nomb.o         1'281
    xsnprout.o                     26
    ---------------------------------------------------
    Total:                      9'469      210      652

dlpprt7M_tl_fc.a: [57]
    cxxabi.o                       10
    delaop_0.o                      4
    delop4_0.o                      4
    delop_0.o                      10
    new.o                                             4
    newaop_0.o                      4
    newop_0.o                      36
    nomemory.o                      4
    ---------------------------------------------------
    Total:                         72                 4

m7M_tls.a: [58]
    DblAddSub.o                   606
    DblCmpEq.o                     32
    DblCmpGe.o                     52
    DblCmpLe.o                     52
    DblDiv.o                      582
    DblMul.o                      426
    DblToFlt.o                    104
    DblToS32.o                     54
    DblToU32.o                     34
    FltToDbl.o                     72
    S32ToDbl.o                     34
    U32ToDbl.o                     28
    fpinit_M.o                     34
    frexp.o                       112
    frexpf.o                       72
    iar_Exp64.o                   724
    ldexp.o                       314
    ldexpf.o                      196
    math_wrappers64.o              22
    pow64.o                     1'604    1'056
    round.o                        98
    strto32.o                     628
    ---------------------------------------------------
    Total:                      5'880    1'056

rt7M_tl.a: [59]
    ABImemclr.o                     6
    ABImemclr4.o                    6
    ABImemcpy.o                   166
    ABImemset.o                   102
    ABImemset48.o                  50
    I64DivMod.o                   560
    I64DivZer.o                     2
    XXexit.o                       12
    cexit.o                        14
    cmain.o                        30
    cmain_call_ctors.o             32
    cstart_call_dtors.o
    cstartup_M.o                   28
    data_init.o                    40
    lz77_init.o                   496
    memchr.o                       88
    strchr.o                       22
    strcpy.o                       24
    strlen.o                       54
    strncpy.o                     112
    zero_init3.o                   56
    ---------------------------------------------------
    Total:                      1'900

    Gaps                           76        2
    Linker created                          56   24'984
-------------------------------------------------------
    Grand Total:              119'545   13'095   91'240


*******************************************************************************
*** ENTRY LIST
***

Entry                       Address    Size  Type      Object
-----                       -------    ----  ----      ------
.iar.dynexit$$Base      0x1fff'4740           --   Gb  - Linker created -
.iar.dynexit$$Limit     0x1fff'48e4           --   Gb  - Linker created -
.iar.init_table$$Base      0x1'ff00           --   Gb  - Linker created -
.iar.init_table$$Limit     0x1'ff38           --   Gb  - Linker created -
?main                      0x1'ff59          Code  Gb  cmain.o [59]
ADC0SampleValue         0x2000'b6d8     0x4  Data  Lc  adc.o [4]
ADC0_IRQHandler            0x1'080f    0x18  Code  Gb  adc.o [4]
ADC16_GetChannelConversionValue
                           0x1'07e9    0x26  Code  Lc  adc.o [4]
ADC1SampleValue         0x2000'b6dc     0x4  Data  Lc  adc.o [4]
ADC1_IRQHandler            0x1'0827    0x14  Code  Gb  adc.o [4]
ApiFrame::ApiFrame()       0x1'a0c5    0x22  Code  Gb  ApiFrame.o [55]
ApiFrame::ApiFrame() [subobject]
                           0x1'a0ad     0x2  Code  Gb  ApiFrame.o [55]
ApiFrame::ApiFrame(ApiFrame::ApiFrameType, unsigned char const *, unsigned short)
                           0x1'a129    0x12  Code  Gb  ApiFrame.o [55]
ApiFrame::ApiFrame(unsigned short)
                           0x1'a0e7    0x30  Code  Gb  ApiFrame.o [55]
ApiFrame::dump() const     0x1'a1a3     0x2  Code  Gb  ApiFrame.o [55]
ApiFrame::get_data() const
                           0x1'a1a9     0x4  Code  Gb  ApiFrame.o [55]
ApiFrame::get_data_at(unsigned short) const
                           0x1'a1ad     0x6  Code  Gb  ApiFrame.o [55]
ApiFrame::get_data_len() const
                           0x1'a1a5     0x4  Code  Gb  ApiFrame.o [55]
ApiFrame::get_next_frame_id()
                           0x1'a117    0x12  Code  Gb  ApiFrame.o [55]
ApiFrame::last_frame_id
                        0x2000'bb83     0x1  Data  Gb  ApiFrame.o [55]
ApiFrame::set_api_frame(ApiFrame::ApiFrameType, unsigned char const *, unsigned short)
                           0x1'a13d    0x48  Code  Gb  ApiFrame.o [55]
ApiFrame::~ApiFrame()      0x1'a18d    0x16  Code  Gb  ApiFrame.o [55]
ApiFrame::~ApiFrame() [subobject]
                           0x1'a0af    0x16  Code  Gb  ApiFrame.o [55]
AtCmdFrame::AtCmdFrame(char const *, unsigned char const *, unsigned short)
                           0x1'c447    0x7c  Code  Gb  AtCmdFrame.o [55]
AtCmdFrame::AtCmdFrame(char const *, unsigned int)
                           0x1'c3d1    0x76  Code  Gb  AtCmdFrame.o [55]
AtCmdFrame::build_at_cmd_frame(char const *, unsigned char const *, unsigned char, bool)
                           0x1'c389    0x48  Code  Gb  AtCmdFrame.o [55]
AutoCycle_log_Data           0xf1c5   0x166  Code  Gb  SDcardoperation.o [49]
BOARD_BAT_I2C_ReleaseBus
                           0x1'295d    0xa4  Code  Gb  bat_i2c.o [25]
BOARD_BootClockRUN         0x1'cbfd    0x42  Code  Gb  clock_config.o [1]
BOARD_I2C_ReleaseBus       0x1'3af9    0xbc  Code  Gb  i2c_init.o [20]
BOARD_InitPins             0x1'8b29   0x174  Code  Gb  pin_mux.o [1]
BatChargerTimer              0xb54b     0x4  Code  Gb  LTC4015_main.o [25]
BatI2CTimer                0x1'28e5     0xa  Code  Gb  bat_i2c.o [25]
BatI2C_ReadAlert           0x1'2af9    0x6e  Code  Gb  bat_i2c.o [25]
BatI2C_ReadRegs            0x1'2a75    0x7e  Code  Gb  bat_i2c.o [25]
BatI2C_WriteReg            0x1'2a01    0x74  Code  Gb  bat_i2c.o [25]
Batt_SOC                0x1fff'090c     0x4  Data  Gb  RobotMain.o [3]
Battemp_str             0x2000'b76c     0xc  Data  Gb  APIProcessing.o [5]
BatteryChargerInit           0xb551   0x168  Code  Gb  LTC4015_main.o [25]
BmsUartInit                0x1'cc79    0x58  Code  Gb  BmsUart.o [7]
Bmscount                0x2000'ad10     0x4  Data  Gb  RobotMain.o [3]
Bmsoperate                 0x1'c7fb    0x6a  Code  Gb  RobotMain.o [3]
Board_ON                0x1fff'0620     0x1  Data  Gb  SDcardoperation.o [49]
BrushFSM                   0x1'1bbd   0x260  Code  Gb  BrushControl.o [42]
BrushFSM::dirChangeFlag
                        0x1fff'0d29     0x1  Data  Lc  BrushControl.o [42]
BrushMotorFSM              0x1'6769    0xaa  Code  Gb  BrushMotorControl.o [26]
BrushMotorMoveNegative     0x1'2081    0x1c  Code  Gb  BrushMotorControl_hal.o [26]
BrushMotorMovePositive     0x1'209d    0x1a  Code  Gb  BrushMotorControl_hal.o [26]
BrushMotorStop             0x1'2109     0x2  Code  Gb  BrushMotorControl_hal.o [26]
BrushMotorTimeIncrement_ms
                           0x1'6875    0x1c  Code  Gb  BrushMotorControl.o [26]
BrushPwmChangeTimeIncrement_ms
                           0x1'1e1d    0xae  Code  Gb  BrushControl.o [42]
CLOCK_BootToPeeMode        0x1'49d9    0x40  Code  Gb  fsl_clock.o [2]
CLOCK_EnableClock          0x1'8ae5    0x14  Code  Lc  pin_mux.o [1]
CLOCK_EnablePll0           0x1'48cd    0x44  Code  Gb  fsl_clock.o [2]
CLOCK_GetEr32kClkFreq      0x1'4601    0x50  Code  Gb  fsl_clock.o [2]
CLOCK_GetFixedFreqClkFreq
                           0x1'47d5    0x1c  Code  Gb  fsl_clock.o [2]
CLOCK_GetFllFreq           0x1'4797    0x36  Code  Gb  fsl_clock.o [2]
CLOCK_GetFllFreq::fllFactorTable
                           0x1'4a5c    0x10  Data  Lc  fsl_clock.o [2]
CLOCK_GetFllRefClkFreq     0x1'4521    0xa2  Code  Lc  fsl_clock.o [2]
CLOCK_GetFreq              0x1'469d    0xa2  Code  Gb  fsl_clock.o [2]
CLOCK_GetMcgExtClkFreq     0x1'44cd    0x52  Code  Lc  fsl_clock.o [2]
CLOCK_GetOsc0ErClkFreq     0x1'45c5    0x2e  Code  Gb  fsl_clock.o [2]
CLOCK_GetOutClkFreq        0x1'4761    0x36  Code  Gb  fsl_clock.o [2]
CLOCK_GetPll0Freq          0x1'47f1    0x44  Code  Gb  fsl_clock.o [2]
CLOCK_GetPllFllSelClkFreq
                           0x1'4661    0x1c  Code  Gb  fsl_clock.o [2]
CLOCK_InitOsc0             0x1'4911    0x5e  Code  Gb  fsl_clock.o [2]
CLOCK_SetExternalRefClkConfig
                           0x1'4835    0x2a  Code  Gb  fsl_clock.o [2]
CLOCK_SetInternalRefClkConfig
                           0x1'485f    0x6e  Code  Gb  fsl_clock.o [2]
CLOCK_SetPbeMode           0x1'496f    0x5e  Code  Gb  fsl_clock.o [2]
CLOCK_SetSimConfig         0x1'473f    0x22  Code  Gb  fsl_clock.o [2]
CSTACK$$Base            0x1fff'48e8           --   Gb  - Linker created -
CSTACK$$Limit           0x1fff'68e8           --   Gb  - Linker created -
CYCLE_OCCURRED          0x2000'bb1c     0x4  Data  Gb  SDcardoperation.o [49]
C_ROW                   0x2000'bb74     0x2  Data  Gb  APIProcessing.o [5]
CardType                0x1fff'0e01     0x1  Data  Lc  diskio.o [49]
Cendsoc                 0x1fff'0a0c     0x8  Data  Gb  APIProcessing.o [5]
Cendtime                0x1fff'09e4    0x28  Data  Gb  APIProcessing.o [5]
CheckAndStopRobotOnProximity
                             0x9249    0x46  Code  Gb  RobotOperation.o [43]
CheckAndWriteData          0x1'3d5b    0xaa  Code  Gb  EventLoggerFlash.o [19]
CheckClearMotorOverCurrentFaults
                             0x9f07    0x3c  Code  Lc  FaultProcess.o [46]
CheckError                   0x9bd9   0x208  Code  Gb  FaultProcess.o [46]
CheckError::prevMotorFaultData
                        0x2000'b4c4     0x4  Data  Lc  FaultProcess.o [46]
CheckHexStrValidity          0x7657    0x38  Code  Gb  ValuesValidate.o [5]
CheckIfCleanerInPosition
                             0x78bd    0x2a  Code  Gb  RobotOperation.o [43]
CheckIfMotorToBeStopped
                             0x9e03    0x68  Code  Lc  FaultProcess.o [46]
CheckIfTCInPosition          0x78e7    0x3a  Code  Gb  RobotOperation.o [43]
CleanerDetect1Init           0xdced    0x24  Code  Gb  cleanerdetect1.o [36]
CleanerDetect2Init           0xdca9    0x24  Code  Gb  cleanerdetect2.o [36]
CleanerDetectInit          0x1'0c61    0x1e  Code  Gb  cleanerdetectcommon.o [36]
ClearActivityLog             0x5e89     0xe  Code  Lc  APIProcessing.o [5]
ClearAllFaults               0x9f45    0x32  Code  Gb  FaultProcess.o [46]
ClearAllLogData              0xd923     0x4  Code  Gb  EventLogger.o [19]
ClearAutoDoneSeconds         0x9761     0x8  Code  Gb  AutoSchedule.o [44]
ClearBatteryError            0xb70d    0x60  Code  Gb  LTC4015_main.o [25]
ClearErrorFromCleaner        0xd5b5     0x8  Code  Gb  ResponseAPIProcess.o [5]
ClearFault                   0x9ee5     0x4  Code  Gb  FaultProcess.o [46]
ClearFaultsOnRobotCommand
                             0x9f77    0x1a  Code  Gb  FaultProcess.o [46]
ClearFlashAllLog           0x1'3c71    0x3e  Code  Gb  EventLoggerFlash.o [19]
ClearIloadMaxOverCount     0x1'0f79    0x1c  Code  Lc  Mot1CurrentFault.o [47]
ClearIloadMaxOverCount     0x1'0fe1    0x1c  Code  Lc  Mot2CurrentFault.o [47]
ClearIloadMaxOverCount     0x1'1049    0x1c  Code  Lc  Mot3CurrentFault.o [47]
ClearIsAckReceived           0xd593     0x4  Code  Gb  ResponseAPIProcess.o [5]
ClearIsCleanerDone           0xd5a1     0x2  Code  Gb  ResponseAPIProcess.o [5]
ClearLastReadRfidData        0xe27d    0x10  Code  Gb  rfid.o [38]
ClearMot1MaxOverCurrentCount
                           0x1'0f77     0x2  Code  Gb  Mot1CurrentFault.o [47]
ClearMot1OverCurrentFault
                           0x1'0f6f     0x8  Code  Gb  Mot1CurrentFault.o [47]
ClearMot2MaxOverCurrentCount
                           0x1'0fdf     0x2  Code  Gb  Mot2CurrentFault.o [47]
ClearMot2OverCurrentFault
                           0x1'0fd7     0x8  Code  Gb  Mot2CurrentFault.o [47]
ClearMot3MaxOverCurrentCount
                           0x1'1047     0x2  Code  Gb  Mot3CurrentFault.o [47]
ClearMot3OverCurrentFault
                           0x1'103f     0x8  Code  Gb  Mot3CurrentFault.o [47]
ClearMotor1OverCurrentFault
                             0x9381     0xe  Code  Gb  MotCurrentFaultCommon.o [47]
ClearMotor2OverCurrentFault
                             0x938f     0xe  Code  Gb  MotCurrentFaultCommon.o [47]
ClearMotor3OverCurrentFault
                             0x939d     0x2  Code  Gb  MotCurrentFaultCommon.o [47]
ClearMotorFault              0x9ee9    0x1e  Code  Lc  FaultProcess.o [46]
ClearProximityCount          0xdda3     0x8  Code  Gb  proximity.o [36]
ClearQuadDecoderCount      0x1'380d    0x20  Code  Gb  QuadDecoder.o [48]
ClearRTCSecondOccured        0x988b     0x4  Code  Gb  Rtc.o [39]
ClearRoboterror              0x9bc1     0xa  Code  Gb  FaultProcess.o [46]
ClearRotateSense1Count     0x1'3613     0x8  Code  Gb  RotateSense1.o [48]
ClearRotateSense2Count     0x1'36fd     0x8  Code  Gb  RotateSense2.o [48]
ClearRotateSenseCount        0xbb25    0x1e  Code  Gb  RotateSenseCommon.o [48]
ClearSmbAlert                0xb6f3    0x18  Code  Gb  LTC4015_main.o [25]
ClearTrackInfo               0x5007    0x6a  Code  Lc  APIProcessing.o [5]
ClearTxBuff                  0x1f15     0xc  Code  Gb  APIProcessing.o [5]
CombineBmsUartReceiveData
                           0x1'cd3d    0x80  Code  Lc  BmsUart.o [7]
CombineConfigUartReceiveData
                           0x1'3485    0xe4  Code  Lc  ConfigUart.o [8]
CombineData                  0xdec9    0x1e  Code  Gb  rfid.o [38]
CombineDebugUartReceiveData
                           0x1'3283    0x90  Code  Lc  DebugUart.o [11]
ConfigSmbAlertInterrupt
                             0xb6bf    0x34  Code  Lc  LTC4015_main.o [25]
ConfigUartInit             0x1'3325    0x5c  Code  Gb  ConfigUart.o [8]
ConfigUartReceive          0x1'33c7    0x4a  Code  Gb  ConfigUart.o [8]
ConfigUartTransmit         0x1'3381    0x46  Code  Gb  ConfigUart.o [8]
ControlledCharging::isAlreadyHighTemp
                        0x2000'b92a     0x1  Data  Lc  LTC4015_main.o [25]
ControlledCharging::isAlreadylowTemp
                        0x2000'b92b     0x1  Data  Lc  LTC4015_main.o [25]
ControlledCharging::prevSuspendTime
                        0x2000'b93c     0x4  Data  Lc  LTC4015_main.o [25]
ConvertHexAndProcess         0xd929    0xa2  Code  Gb  ConfigAPIProcess.o [9]
ConvertRTCDateTimeToString
                             0x9a59    0x2c  Code  Gb  Rtc.o [39]
ConvertRTCDateToSeconds
                             0x9add    0x1e  Code  Gb  Rtc.o [39]
ConvertRTCDatetimeToSeconds
                             0x9ab5    0x28  Code  Gb  Rtc.o [39]
ConvertRTCSecondsToDatetime
                             0x9a85     0xa  Code  Gb  Rtc.o [39]
ConvertRTCTimeToSeconds
                             0x9b05    0x1a  Code  Gb  Rtc.o [39]
ConvertRadixNumToString
                           0x1'bfa1    0x76  Code  Lc  fsl_str.o [54]
Cstartsoc               0x1fff'09dc     0x8  Data  Gb  APIProcessing.o [5]
Cstarttime              0x1fff'09b4    0x28  Data  Gb  APIProcessing.o [5]
Cumulative_distance     0x2000'b9f0     0x4  Data  Gb  ResponseAPIProcess.o [5]
Cumulative_distance_cont
                        0x2000'b9f4     0x4  Data  Gb  ResponseAPIProcess.o [5]
CycleModeFSM                 0x9585    0xf6  Code  Gb  CycleMode.o [45]
DEC_TEN_ASCII                0xdee7   0x1ba  Code  Gb  rfid.o [38]
DSPI_CommonIRQHandler      0x1'e255    0x1a  Code  Lc  fsl_dspi.o [2]
DataVar                 0x2000'bb38     0x4  Data  Gb  eeprom.o [17]
Daycount                0x2000'ba9a     0x1  Data  Gb  AutoSchedule.o [44]
DbgConsole_Printf          0x1'9445    0x2a  Code  Gb  fsl_debug_console.o [54]
DbgConsole_RelocateLog     0x1'9475    0x30  Code  Lc  fsl_debug_console.o [54]
DebugSerialTransmit        0x1'7865     0xc  Code  Gb  ZigbeeAPIHAL.o [55]
DebugUartInit              0x1'3141    0x58  Code  Gb  DebugUart.o [11]
DebugUartReceive           0x1'31db    0x46  Code  Gb  DebugUart.o [11]
DebugUartTransmit          0x1'3199    0x42  Code  Gb  DebugUart.o [11]
DefaultValuesInit            0xa189    0x40  Code  Gb  DefaultValues.o [16]
DelayMsTimerhandler        0x1'2c9b    0x16  Code  Gb  delay.o [15]
Delete_SDdata                0xf55d    0x32  Code  Gb  SDcardoperation.o [49]
Dietemp_str             0x2000'b784     0xc  Data  Gb  APIProcessing.o [5]
DigiLog::DigiLogger::DigiLogger() [subobject]
                           0x1'7799     0x2  Code  Gb  DigiLogger.o [55]
DigiLog::DigiLogger::_log_level
                        0x2000'b1d0     0x1  Data  Gb  DigiLogger.o [55]
DigiLog::DigiLogger::current_logger
                        0x2000'b1d4     0x4  Data  Gb  DigiLogger.o [55]
DigiLog::DigiLogger::log_buffer(char const *)
                           0x1'77e5     0x2  Code  Gb  DigiLogger.o [55]
DigiLog::DigiLogger::log_format(LogLevel, char const *, ...)
                           0x1'77a9    0x30  Code  Gb  DigiLogger.o [55]
DigiLog::DigiLogger::log_format(LogLevel, char const *, ...)::buffer
                        0x2000'b1d8    0xc8  Data  Lc  DigiLogger.o [55]
DigiLog::DigiLoggerSerial::DigiLoggerSerial(LogLevel)
                           0x1'78fd     0x2  Code  Gb  DigiLoggerSerial.o [55]
DigiLog::DigiLoggerSerial::log_buffer(char const *)
                           0x1'7925     0x6  Code  Gb  DigiLoggerSerial.o [55]
Direct_SPI_Init            0x1'528d    0x32  Code  Gb  spi.o [50]
DisableQuadDecoder         0x1'3837    0x3c  Code  Gb  QuadDecoder.o [48]
DisableRotateSense           0xbbe5    0x1e  Code  Gb  RotateSenseCommon.o [48]
DisableRotateSense_1       0x1'3645    0x1a  Code  Gb  RotateSense1.o [48]
DisableRotateSense_2       0x1'372f    0x1a  Code  Gb  RotateSense2.o [48]
DisableZigbeeUartIT        0x1'2893    0x10  Code  Gb  ZigbeeUart.o [13]
DispDebugInfo              0x1'c787    0x74  Code  Gb  RobotMain.o [3]
DispDebugInfo::timeValue
                        0x2000'bb54     0x4  Data  Lc  RobotMain.o [3]
Distancevalue           0x1fff'09b0     0x4  Data  Gb  APIProcessing.o [5]
DoLedBlinkFSM::noOfBlink
                        0x1fff'0b74     0x1  Data  Lc  Led1.o [22]
DoLedBlinkFSM::noOfBlink
                        0x1fff'0ca4     0x1  Data  Lc  Led2.o [23]
DoLedBlinkFSM::noOfBlink
                        0x1fff'0bc8     0x1  Data  Lc  Led3.o [24]
DoLedBlinkFSM::redLedBlinkState
                        0x1fff'0b73     0x1  Data  Lc  Led1.o [22]
DoLedBlinkFSM::redLedBlinkState
                        0x1fff'0ca3     0x1  Data  Lc  Led2.o [23]
DoLedBlinkFSM::redLedBlinkState
                        0x1fff'0bc7     0x1  Data  Lc  Led3.o [24]
DoLedOperate::redLedPrevOperateState
                        0x1fff'0b72     0x1  Data  Lc  Led1.o [22]
DoLedOperate::redLedPrevOperateState
                        0x1fff'0ca2     0x1  Data  Lc  Led2.o [23]
DoLedOperate::redLedPrevOperateState
                        0x1fff'0bc6     0x1  Data  Lc  Led3.o [24]
DoRelayOff                 0x1'0e0b     0x6  Code  Gb  Relay.o [40]
DoRelayOn                  0x1'0e03     0x8  Code  Gb  Relay.o [40]
DoZigbeeResetOff           0x1'7859     0xc  Code  Gb  ZigbeeAPIHAL.o [55]
DoZigbeeResetOn            0x1'784d     0xc  Code  Gb  ZigbeeAPIHAL.o [55]
Drivetemp_str           0x2000'b778     0xc  Data  Gb  APIProcessing.o [5]
Dtemp_str               0x2000'b638     0xc  Data  Gb  APIProcessing.o [5]
Dtentox                      0xe529   0x14a  Code  Lc  strto32.o [58]
DtorRecArray            0x1fff'4740     0xc  Data  Lc  cppinit.o [56]
EEPROM_Init                0x1'3899    0x2c  Code  Gb  EepromMain.o [17]
EE_Format                  0x1'8a33    0x36  Code  Lc  eeprom.o [17]
EE_Init                    0x1'8789   0x1a6  Code  Gb  eeprom.o [17]
EE_ReadVariable            0x1'892f    0x4e  Code  Gb  eeprom.o [17]
EE_VerifyPageFullWriteVariable
                           0x1'8a69    0x66  Code  Lc  eeprom.o [17]
EE_WriteVariable           0x1'897d    0xb6  Code  Gb  eeprom.o [17]
ERROR_OCCURRED          0x2000'bb18     0x4  Data  Gb  SDcardoperation.o [49]
ERROR_log_Data               0xef29   0x164  Code  Gb  SDcardoperation.o [49]
EdgeSense1Init             0x1'1631    0x44  Code  Gb  EdgeSense1.o [18]
EdgeSense1TimeIncrement_ms
                           0x1'167b    0x2e  Code  Gb  EdgeSense1.o [18]
EdgeSense2Init             0x1'16dd    0x44  Code  Gb  EdgeSense2.o [18]
EdgeSense2TimeIncrement_ms
                           0x1'1727    0x2e  Code  Gb  EdgeSense2.o [18]
EdgeSenseInit                0x9809    0x1e  Code  Gb  EdgeSenseCommon.o [18]
EdgeSenseTimeIncrement_ms
                             0x986d     0xe  Code  Gb  EdgeSenseCommon.o [18]
Edge_Sense1_Irq            0x1'1611    0x1e  Code  Gb  EdgeSense1.o [18]
Edge_Sense2_Irq            0x1'16bd    0x1e  Code  Gb  EdgeSense2.o [18]
EepromDataNil                0xbc05     0x4  Code  Gb  eepromStore.o [17]
EepromDevIDInfo              0xca89    0xda  Code  Gb  eepromStore.o [17]
EepromHeartbeatConfiguration
                             0xbded    0x58  Code  Gb  eepromStore.o [17]
EepromSetAutoScheduleTime
                             0xbf7d    0xca  Code  Gb  eepromStore.o [17]
EepromSetCommDistance        0xcdd9    0x2c  Code  Gb  eepromStore.o [17]
EepromSetContinue            0xcd81    0x2c  Code  Gb  eepromStore.o [17]
EepromSetCycleFrequency
                             0xcbed    0x2a  Code  Gb  eepromStore.o [17]
EepromSetEdgeSensorState
                             0xc047    0x48  Code  Gb  eepromStore.o [17]
EepromSetLogInterval         0xcc2d   0x154  Code  Gb  eepromStore.o [17]
EepromSetLowBatSoC           0xc08f    0x42  Code  Gb  eepromStore.o [17]
EepromSetMode                0xbc09    0x4a  Code  Gb  eepromStore.o [17]
EepromSetMotorPwmAutoMode
                             0xbe45    0xd8  Code  Gb  eepromStore.o [17]
EepromSetMotorPwmManualMode
                             0xbce7   0x106  Code  Gb  eepromStore.o [17]
EepromSetNoofRowday          0xce05    0xf2  Code  Gb  eepromStore.o [17]
EepromSetPulseCount          0xbf1d    0x58  Code  Gb  eepromStore.o [17]
EepromSetReturnState         0xcdad    0x2c  Code  Gb  eepromStore.o [17]
EepromSetTcControlMode       0xbc53    0x4a  Code  Gb  eepromStore.o [17]
EepromSetWheelDia            0xcb63    0x6c  Code  Gb  eepromStore.o [17]
EepromStoreCleanerMAC        0xc68f    0x9e  Code  Gb  eepromStore.o [17]
EepromStoreEncoderPulseTolerance
                             0xc735    0x2a  Code  Gb  eepromStore.o [17]
EepromStoreRfidData          0xc75f    0xca  Code  Gb  eepromStore.o [17]
EepromStoreRfidData2         0xc831    0xd6  Code  Gb  eepromStore.o [17]
EepromStoreRfidData3         0xc907    0xd6  Code  Gb  eepromStore.o [17]
EepromStoreRfidState         0xbc9d    0x4a  Code  Gb  eepromStore.o [17]
EepromStoreRowLength         0xc373   0x31c  Code  Gb  eepromStore.o [17]
EepromStoreRowLength2        0xcef7    0x66  Code  Gb  eepromStore.o [17]
EepromStoreRowLength3        0xcf5d   0x132  Code  Gb  eepromStore.o [17]
EepromStoreRowLength4        0xd08f   0x136  Code  Gb  eepromStore.o [17]
EepromStoreRowLength5        0xd1c5   0x136  Code  Gb  eepromStore.o [17]
EepromStoreRowLength6        0xd2fb    0x66  Code  Gb  eepromStore.o [17]
EepromStoreRowLength7        0xd435   0x136  Code  Gb  eepromStore.o [17]
EepromStoreTrackInfo         0xc0db   0x148  Code  Gb  eepromStore.o [17]
EepromStoreTrackInfo2        0xc223   0x150  Code  Gb  eepromStore.o [17]
EepromZigbeeConfiguration
                             0xc0d7     0x4  Code  Gb  eepromStore.o [17]
EnableIRQ                  0x1'79f5    0x28  Code  Lc  fsl_i2c.o [2]
EnablePortInterrupt        0x1'2e7d     0xa  Code  Gb  PortInterrupt.o [37]
EnableSmbPortInterrupt     0x1'2ec1     0xa  Code  Gb  PortInterrupt.o [37]
EnableZigbeeUartIT         0x1'28a3     0x8  Code  Gb  ZigbeeUart.o [13]
Error_Cleared           0x2000'b4bf     0x1  Data  Gb  FaultProcess.o [46]
Error_Count                  0x9bb9     0x8  Code  Gb  FaultProcess.o [46]
ExtractData                  0x5fed   0x124  Code  Gb  APIProcessing.o [5]
FLASH_Erase                0x1'ba91    0x84  Code  Gb  fsl_flash.o [2]
FLASH_ErasePage            0x1'8759    0x10  Code  Gb  eepromStdtoHalDriver.o [17]
FLASH_GetProperty          0x1'bdf1    0x54  Code  Gb  fsl_flash.o [2]
FLASH_GetSecurityState     0x1'bbad    0x36  Code  Gb  fsl_flash.o [2]
FLASH_Init                 0x1'b9e5    0x6c  Code  Gb  fsl_flash.o [2]
FLASH_Initialisation       0x1'8749    0x10  Code  Gb  eepromStdtoHalDriver.o [17]
FLASH_IsProtected          0x1'bce3   0x10c  Code  Gb  fsl_flash.o [2]
FLASH_PrepareExecuteInRamFunctions
                           0x1'ba51    0x40  Code  Gb  fsl_flash.o [2]
FLASH_Program              0x1'bb15    0x92  Code  Gb  fsl_flash.o [2]
FLASH_ProgramHalfWord      0x1'8779    0x10  Code  Gb  eepromStdtoHalDriver.o [17]
FLASH_ProgramWordArray     0x1'8769    0x10  Code  Gb  eepromStdtoHalDriver.o [17]
FLASH_VerifyErase          0x1'bbe3    0x86  Code  Gb  fsl_flash.o [2]
FLASH_VerifyProgram        0x1'bc6f    0x74  Code  Gb  fsl_flash.o [2]
FTM1_IRQHandler            0x1'375d    0x2e  Code  Gb  QuadDecoder.o [48]
FTM_ClearStatusFlags       0x1'8691    0x32  Code  Gb  fsl_ftm.o [2]
FTM_Deinit                 0x1'8231    0x66  Code  Gb  fsl_ftm.o [2]
FTM_DisableInterrupts      0x1'862d    0x40  Code  Gb  fsl_ftm.o [2]
FTM_EnableInterrupts       0x1'85ed    0x40  Code  Gb  fsl_ftm.o [2]
FTM_GetDefaultConfig       0x1'8297    0x3a  Code  Gb  fsl_ftm.o [2]
FTM_GetInstance            0x1'8011    0x42  Code  Lc  fsl_ftm.o [2]
FTM_Init                   0x1'8053   0x1de  Code  Gb  fsl_ftm.o [2]
FTM_SetupPwm               0x1'82d1   0x20c  Code  Gb  fsl_ftm.o [2]
FTM_SetupQuadDecode        0x1'8561    0x8c  Code  Gb  fsl_ftm.o [2]
FTM_UpdatePwmDutycycle     0x1'84dd    0x84  Code  Gb  fsl_ftm.o [2]
FatFs                   0x2000'bac4     0x4  Data  Lc  ff.o [49]
FatFs                   0x1fff'062c   0x230  Data  Gb  SDcardoperation.o [49]
Fil                     0x1fff'085c    0x24  Data  Gb  SDcardoperation.o [49]
FrameBuffer::FrameBuffer(unsigned char, unsigned short)
                           0x1'a2fd    0x5e  Code  Gb  FrameBuffer.o [55]
FrameBuffer::complete_frame(ApiFrame *)
                           0x1'a3df    0x2c  Code  Gb  FrameBuffer.o [55]
FrameBuffer::free_frame(ApiFrame *)
                           0x1'a461    0x2a  Code  Gb  FrameBuffer.o [55]
FrameBuffer::get_dropped_frames_count()
                           0x1'a48b     0xa  Code  Gb  FrameBuffer.o [55]
FrameBuffer::get_next_complete_frame()
                           0x1'a40b    0x56  Code  Gb  FrameBuffer.o [55]
FrameBuffer::get_next_free_frame()
                           0x1'a38d    0x52  Code  Gb  FrameBuffer.o [55]
FrameBuffer::~FrameBuffer()
                           0x1'a361     0x2  Code  Gb  FrameBuffer.o [55]
FrameHandler::FrameHandler(ApiFrame::ApiFrameType) [subobject]
                           0x1'c4fd     0x4  Code  Gb  FrameHandler.o [55]
Fsid                    0x2000'bac0     0x2  Data  Lc  ff.o [49]
GETLog_AUTOCYCLE             0xf34d   0x12a  Code  Gb  SDcardoperation.o [49]
GETLog_Cleaner               0xedcb   0x130  Code  Gb  SDcardoperation.o [49]
GETLog_ERROR                 0xf08d   0x128  Code  Gb  SDcardoperation.o [49]
GETLog_SOC                   0xeb61    0x48  Code  Gb  SDcardoperation.o [49]
GETLog_Temperature           0xe951    0x4a  Code  Gb  SDcardoperation.o [49]
GPIO_PinInit               0x1'2d89    0x3e  Code  Gb  fsl_gpio.o [2]
GPIO_PortClearInterruptFlags
                           0x1'2dc9    0x4c  Code  Gb  fsl_gpio.o [2]
GetAcknowledgementData       0x1e8d    0x88  Code  Gb  APIProcessing.o [5]
GetAssociationStatus       0x1'25f3    0x1a  Code  Gb  ZigbeeAPI.o [55]
GetBatI2CTime              0x1'28ef     0x6  Code  Gb  bat_i2c.o [25]
GetBatteryCurrent            0xb925    0x4c  Code  Gb  LTC4015_main.o [25]
GetBatteryVoltage            0xb8d1    0x46  Code  Gb  LTC4015_main.o [25]
GetBrushActualDirection
                           0x1'1b99    0x22  Code  Lc  BrushControl.o [42]
GetBrushMotorNegativePwm
                           0x1'20f1    0x10  Code  Gb  BrushMotorControl_hal.o [26]
GetBrushMotorPositivePwm
                           0x1'20e1    0x10  Code  Gb  BrushMotorControl_hal.o [26]
GetBrushMotorPwm           0x1'685d    0x18  Code  Gb  BrushMotorControl.o [26]
GetBrushMotorState         0x1'6813     0x6  Code  Gb  BrushMotorControl.o [26]
GetBrushPwmCh1DutyCycle
                           0x1'6965     0x6  Code  Gb  BrushPwm.o [27]
GetBrushPwmCh2DutyCycle
                           0x1'696b     0x6  Code  Gb  BrushPwm.o [27]
GetBrushState              0x1'1b91     0x8  Code  Gb  BrushControl.o [42]
GetChargingOrNot             0xb9a1    0x1e  Code  Gb  LTC4015_main.o [25]
GetCleanerDetect1PinState
                             0xdcdd    0x10  Code  Gb  cleanerdetect1.o [36]
GetCleanerDetect2PinState
                             0xdc99    0x10  Code  Gb  cleanerdetect2.o [36]
GetCommandProcessingParam
                             0x5fc1     0xa  Code  Gb  APIProcessing.o [5]
GetConfiguredPanId         0x1'24c7     0xc  Code  Gb  ZigbeeAPI.o [55]
GetCountRange                0xa3ed     0x2  Code  Gb  RobotControl.o [41]
GetCycleModeState            0x9575     0x6  Code  Gb  CycleMode.o [45]
GetDefaultMotionParameter
                             0xa0dd    0x22  Code  Lc  DefaultValues.o [16]
GetDetectedRfidIndex         0x7921    0x64  Code  Gb  RobotOperation.o [43]
GetDieTemperature            0xb971    0x26  Code  Gb  LTC4015_main.o [25]
GetErrorState                0x9bcb     0x8  Code  Gb  FaultProcess.o [46]
GetImot1Value              0x1'0841    0x36  Code  Gb  adc.o [4]
GetImot2Value              0x1'0879    0x34  Code  Gb  adc.o [4]
GetImot3Value              0x1'08c5    0x36  Code  Gb  adc.o [4]
GetInputCurrent              0xb8ab    0x1e  Code  Gb  LTC4015_main.o [25]
GetInputVoltage              0xb87b     0xe  Code  Gb  LTC4015_main.o [25]
GetLPTimerMsTicks          0x1'0d5b     0x8  Code  Gb  LPTimer.o [33]
GetLastOperationData         0xa41d     0x6  Code  Gb  RobotControl.o [41]
GetLastReadRfidData          0xe26b    0x12  Code  Gb  rfid.o [38]
GetManualState               0x8f77     0x8  Code  Gb  RobotOperation.o [43]
GetMotor1NegativePwm       0x1'0f0f     0x4  Code  Gb  Motor1Control_hal.o [28]
GetMotor1PositivePwm       0x1'0f05     0x4  Code  Gb  Motor1Control_hal.o [28]
GetMotor1Pwm               0x1'2205    0x18  Code  Gb  Motor1Control.o [28]
GetMotor1State             0x1'21c7     0x6  Code  Gb  Motor1Control.o [28]
GetMotor1TargetState       0x1'21d3     0x6  Code  Gb  Motor1Control.o [28]
GetMotor2NegativePwm       0x1'2055    0x10  Code  Gb  Motor2Control_hal.o [30]
GetMotor2PositivePwm       0x1'2045    0x10  Code  Gb  Motor2Control_hal.o [30]
GetMotor2Pwm               0x1'233b    0x18  Code  Gb  Motor2Control.o [30]
GetMotor2State             0x1'22eb     0x6  Code  Gb  Motor2Control.o [30]
GetMotor2TargetState       0x1'22f7     0x6  Code  Gb  Motor2Control.o [30]
GetMotorFaultCode            0x9f91     0x6  Code  Gb  FaultProcess.o [46]
GetNextIndex                 0x9295     0x6  Code  Gb  RobotOperation.o [43]
GetNumberofValidData         0x8eb1    0x52  Code  Gb  RobotOperation.o [43]
GetNumberofValidData2        0x8f03    0x4e  Code  Gb  RobotOperation.o [43]
GetOperating16bitPanId     0x1'24a3     0xc  Code  Gb  ZigbeeAPI.o [55]
GetOperatingChannel        0x1'24af     0xc  Code  Gb  ZigbeeAPI.o [55]
GetOperatingPanId          0x1'2497     0xc  Code  Gb  ZigbeeAPI.o [55]
GetOperationMode             0x8f5b     0x8  Code  Gb  RobotOperation.o [43]
GetPrevPauseState            0x907b     0x8  Code  Gb  RobotOperation.o [43]
GetPrevRotateSense1Count
                             0x929b     0x6  Code  Gb  RobotOperation.o [43]
GetProximityCount            0xdd9d     0x6  Code  Gb  proximity.o [36]
GetPulseFrequency          0x1'6671     0x6  Code  Gb  Pwm1.o [29]
GetPwm2Ch1DutyCycle        0x1'68ed     0x6  Code  Gb  Pwm2.o [31]
GetPwm2Ch2DutyCycle        0x1'68f3     0x6  Code  Gb  Pwm2.o [31]
GetQCountFromVBat          0x1'2cc1    0xb4  Code  Gb  store_soc.o [25]
GetQCountStoreRegPointer
                           0x1'1b11     0x4  Code  Gb  VBatReg.o [34]
GetQuadDecoderCountValue
                           0x1'37ed     0x6  Code  Gb  QuadDecoder.o [48]
GetRTCDateTime               0x993b     0xe  Code  Gb  Rtc.o [39]
GetRTCDateTimeSeconds        0x9a11     0x6  Code  Gb  Rtc.o [39]
GetRTCDateTimeString         0x9a19    0x40  Code  Gb  Rtc.o [39]
GetRTCInvalidClockRegPointer
                           0x1'1b15     0x4  Code  Gb  VBatReg.o [34]
GetReceivedMACAddress         0x41b     0xa  Code  Gb  APIProcessing.o [5]
GetRegisterValue             0xb865     0xc  Code  Gb  LTC4015_main.o [25]
GetRelayStatus             0x1'0e1b     0x6  Code  Gb  Relay.o [40]
GetReportTrackChangerState
                             0x928f     0x6  Code  Gb  RobotOperation.o [43]
GetRfidState                 0xde0b     0x8  Code  Gb  rfid.o [38]
GetRobotActualDirection
                             0xa3ad    0x3c  Code  Gb  RobotControl.o [41]
GetRobotState                0xa3a5     0x8  Code  Gb  RobotControl.o [41]
GetRotateSense1Count         0xbb91    0x18  Code  Gb  RotateSenseCommon.o [48]
GetRotateSense1CountValue
                           0x1'360d     0x6  Code  Gb  RotateSense1.o [48]
GetRotateSense2Count         0xbbb1    0x16  Code  Gb  RotateSenseCommon.o [48]
GetRotateSense2CountValue
                           0x1'36f7     0x6  Code  Gb  RotateSense2.o [48]
GetRotateSenseCount          0xbb79    0x18  Code  Gb  RotateSenseCommon.o [48]
GetSOCAsPercentage           0xb815    0x50  Code  Gb  LTC4015_main.o [25]
GetSOCAsPercentage::prevTime_soc
                        0x2000'b938     0x4  Data  Lc  LTC4015_main.o [25]
GetSetBrushAutoPwmParameters
                           0x1'1b6d     0x6  Code  Gb  BrushControl.o [42]
GetSetBrushEnabledState
                           0x1'1b21     0x6  Code  Gb  BrushControl.o [42]
GetSetBrushMotPolarity     0x1'207d     0x4  Code  Gb  BrushMotorControl_hal.o [26]
GetSetBrushNormalPwmParameters
                           0x1'1b67     0x6  Code  Gb  BrushControl.o [42]
GetSetCleanerMAC             0x775b     0x4  Code  Gb  RobotOperation.o [43]
GetSetContinueLimits         0x93c9     0x4  Code  Gb  MotCurrentFaultCommon.o [47]
GetSetCountRange             0xa3e9     0x2  Code  Gb  RobotControl.o [41]
GetSetCycleAutoPwmParameters
                             0x9571     0x4  Code  Gb  CycleMode.o [45]
GetSetCycleManualPwmParameters
                             0x956d     0x4  Code  Gb  CycleMode.o [45]
GetSetDeviceIDInfo           0xa053     0x4  Code  Gb  DefaultValues.o [16]
GetSetEdgeSensorEnabledState
                             0x9827     0x4  Code  Gb  EdgeSenseCommon.o [18]
GetSetEmergencyPwmParameters
                             0x774f     0x4  Code  Gb  RobotOperation.o [43]
GetSetEncoderPulseTolerance
                             0x7763     0x4  Code  Gb  RobotOperation.o [43]
GetSetHeartbeatConfig        0xbacb     0x4  Code  Gb  CommCommon.o [6]
GetSetIntervalLimits         0x93c5     0x4  Code  Gb  MotCurrentFaultCommon.o [47]
GetSetManualPwmParameters
                             0x774b     0x4  Code  Gb  RobotOperation.o [43]
GetSetMaxBoardTemperature
                             0xd8fd     0x4  Code  Gb  temp_sensors.o [52]
GetSetMaxIloadConfigValues
                             0x936d     0x4  Code  Gb  MotCurrentFaultCommon.o [47]
GetSetMaxMotorCurrentLimits
                             0x9371     0x4  Code  Gb  MotCurrentFaultCommon.o [47]
GetSetMinBattSoc             0x9bd3     0x6  Code  Gb  FaultProcess.o [46]
GetSetMot1Polarity         0x1'0e97     0x4  Code  Gb  Motor1Control_hal.o [28]
GetSetMot2Polarity         0x1'1fcd     0x4  Code  Gb  Motor2Control_hal.o [30]
GetSetNoofrowsLimits         0x93d1     0x4  Code  Gb  MotCurrentFaultCommon.o [47]
GetSetReturnLimits           0x93cd     0x4  Code  Gb  MotCurrentFaultCommon.o [47]
GetSetRfidData               0x7757     0x4  Code  Gb  RobotOperation.o [43]
GetSetRowLengthData          0x775f     0x4  Code  Gb  RobotOperation.o [43]
GetSetScheduleTime           0x9769     0x4  Code  Gb  AutoSchedule.o [44]
GetSetTrackData              0x7753     0x4  Code  Gb  RobotOperation.o [43]
GetSetZigbeeConfig           0xaee9     0x6  Code  Gb  ZigbeeAPIMode.o [12]
GetSetcycleFrequencyLimits
                             0x93c1     0x4  Code  Gb  MotCurrentFaultCommon.o [47]
GetSetrunrfidLimits          0x93d5     0x4  Code  Gb  MotCurrentFaultCommon.o [47]
GetSetwheelDiaLimits         0x93bd     0x4  Code  Gb  MotCurrentFaultCommon.o [47]
GetStackProfile            0x1'24bb     0xc  Code  Gb  ZigbeeAPI.o [55]
GetStoredQC                0x1'2cb5     0xa  Code  Gb  store_soc.o [25]
GetSwitchState               0xd839    0x16  Code  Gb  switch.o [51]
GetTcControlMode             0x76e9     0x8  Code  Gb  RobotOperation.o [43]
GetTempSenseI2CTimer       0x1'3a8b     0x6  Code  Gb  i2c_init.o [20]
GetTemperatureSensorData
                             0xd865    0x98  Code  Gb  temp_sensors.o [52]
GetTrackChangerError         0x7707     0x6  Code  Gb  RobotOperation.o [43]
GetTrackChangerState         0x76f9     0x6  Code  Gb  RobotOperation.o [43]
GetUartType                  0xbabf     0x6  Code  Gb  CommCommon.o [6]
GetZigbeeAPIEncryptionOptions
                           0x1'2535     0xc  Code  Gb  ZigbeeAPI.o [55]
GetZigbeeAPIJoinVerifyEnableState
                           0x1'2515     0xc  Code  Gb  ZigbeeAPI.o [55]
GetZigbeeAPIMacAddress     0x1'2471     0x6  Code  Gb  ZigbeeAPI.o [55]
GetZigbeeAPISecurityState
                           0x1'2509     0xc  Code  Gb  ZigbeeAPI.o [55]
GetZigbeeMacAddress          0xaf41    0x16  Code  Gb  ZigbeeAPIMode.o [12]
GetZigbeeNetworkParameters
                             0xb2ed    0x98  Code  Gb  ZigbeeAPIMode.o [12]
GetZigbeeParameters          0xb1fd    0xbc  Code  Gb  ZigbeeAPIMode.o [12]
Get_SD_Card_MOTORCRNT        0x6fc5    0x22  Code  Gb  APIProcessing.o [5]
Get_SD_Card_SOC              0x6f5d    0x68  Code  Gb  APIProcessing.o [5]
Get_SD_Card_Temps            0x6f2d    0x28  Code  Gb  APIProcessing.o [5]
HEAP$$Base              0x1fff'68e8           --   Gb  - Linker created -
HEAP$$Limit             0x1fff'a8e8           --   Gb  - Linker created -
HEX_to_DEC                   0xe0a1    0xe8  Code  Gb  rfid.o [38]
HexStringtoByteArray         0x741b    0x9c  Code  Gb  NumStrConversion.o [32]
HexStringtoHexByte           0x73b3    0x68  Code  Gb  NumStrConversion.o [32]
HexStringtoInt               0x74b7    0x46  Code  Gb  NumStrConversion.o [32]
I2C0_DriverIRQHandler      0x1'7fc1     0xa  Code  Gb  fsl_i2c.o [2]
I2C0_InitPins              0x1'8c9d    0x22  Code  Gb  pin_mux.o [1]
I2C0_InitPins::porte0_pin1_config
                           0x1'8cf8     0x2  Data  Lc  pin_mux.o [1]
I2C0_InitPins::porte1_pin2_config
                           0x1'8cfc     0x2  Data  Lc  pin_mux.o [1]
I2C1_DriverIRQHandler      0x1'7fcb     0xa  Code  Gb  fsl_i2c.o [2]
I2C1_InitPins              0x1'2b69    0x1c  Code  Gb  bat_i2c.o [25]
I2C1_InitPins::portc0_pin11_config
                           0x1'2ba0     0x2  Data  Lc  bat_i2c.o [25]
I2C1_InitPins::portc1_pin10_config
                           0x1'2ba4     0x2  Data  Lc  bat_i2c.o [25]
I2C2_DriverIRQHandler      0x1'7fd5     0xa  Code  Gb  fsl_i2c.o [2]
I2C_CheckAndClearError     0x1'7a57    0x1c  Code  Lc  fsl_i2c.o [2]
I2C_Data_2              0x2000'b930     0x4  Data  Gb  LTC4015_main.o [25]
I2C_GetInstance            0x1'7a1d    0x3a  Code  Gb  fsl_i2c.o [2]
I2C_MasterGetDefaultConfig
                           0x1'7b59    0x2c  Code  Gb  fsl_i2c.o [2]
I2C_MasterGetStatusFlags
                           0x1'7c81    0x1a  Code  Gb  fsl_i2c.o [2]
I2C_MasterInit             0x1'7a99    0xa4  Code  Gb  fsl_i2c.o [2]
I2C_MasterRepeatedStart
                           0x1'7c33    0x4e  Code  Gb  fsl_i2c.o [2]
I2C_MasterSetBaudRate      0x1'7b95    0x60  Code  Gb  fsl_i2c.o [2]
I2C_MasterStart            0x1'7bf5    0x3e  Code  Gb  fsl_i2c.o [2]
I2C_MasterTransferCreateHandle
                           0x1'7c9b    0x44  Code  Gb  fsl_i2c.o [2]
I2C_MasterTransferHandleIRQ
                           0x1'7da5   0x1dc  Code  Gb  fsl_i2c.o [2]
I2C_MasterTransferNonBlocking
                           0x1'7cdf    0xc4  Code  Gb  fsl_i2c.o [2]
I2C_ReadKeypadRegs         0x1'3bb5    0x66  Code  Gb  i2c_init.o [20]
I2C_TransferCommonIRQHandler
                           0x1'7a73    0x24  Code  Lc  fsl_i2c.o [2]
IO_Transfer                0x1'c52d    0x30  Code  Gb  fsl_io.o [54]
Ibat_str                0x2000'b62c     0xc  Data  Gb  APIProcessing.o [5]
Iin_str                 0x2000'b620     0xc  Data  Gb  APIProcessing.o [5]
IloadMaxTimeOnFlag      0x2000'b9a9     0x1  Data  Lc  Mot1CurrentFault.o [47]
IloadMaxTimeOnFlag      0x2000'b9b9     0x1  Data  Lc  Mot2CurrentFault.o [47]
IloadMaxTimeOnFlag      0x2000'b9c9     0x1  Data  Lc  Mot3CurrentFault.o [47]
IloadMot1MaxTimeIncrement_ms
                           0x1'0f95    0x38  Code  Gb  Mot1CurrentFault.o [47]
IloadMot2MaxTimeIncrement_ms
                           0x1'0ffd    0x38  Code  Gb  Mot2CurrentFault.o [47]
IloadMot3MaxTimeIncrement_ms
                           0x1'1065    0x38  Code  Gb  Mot3CurrentFault.o [47]
IloadMotMaxTimeIncrement_ms
                             0x93ab    0x12  Code  Gb  MotCurrentFaultCommon.o [47]
Imot1AdcValue           0x2000'b6cc     0x4  Data  Lc  adc.o [4]
Imot1OffsetValue        0x2000'b6e0     0x4  Data  Lc  adc.o [4]
Imot1_Str               0x2000'b790     0xc  Data  Gb  APIProcessing.o [5]
Imot2AdcValue           0x2000'b6d0     0x4  Data  Lc  adc.o [4]
Imot2OffsetValue        0x2000'b6e4     0x4  Data  Lc  adc.o [4]
Imot2_Str               0x2000'b79c     0xc  Data  Gb  APIProcessing.o [5]
Imot3AdcValue           0x2000'b6d4     0x4  Data  Lc  adc.o [4]
Imot3OffsetValue        0x2000'b6e8     0x4  Data  Lc  adc.o [4]
Imot3_Str               0x2000'b7a8     0xc  Data  Gb  APIProcessing.o [5]
ImotOverCurrentCount    0x2000'b9b0     0x4  Data  Lc  Mot1CurrentFault.o [47]
ImotOverCurrentCount    0x2000'b9c0     0x4  Data  Lc  Mot2CurrentFault.o [47]
ImotOverCurrentCount    0x2000'b9d0     0x4  Data  Lc  Mot3CurrentFault.o [47]
InStream_Read              0x1'd92d    0x20  Code  Lc  lz77_init.o [59]
InStream_StepRegion        0x1'd919    0x14  Code  Lc  lz77_init.o [59]
InitBatI2C                 0x1'28f5    0x3a  Code  Gb  bat_i2c.o [25]
InitI2C                    0x1'3a91    0x3a  Code  Gb  i2c_init.o [20]
InitSwitch                   0xd81d    0x1c  Code  Gb  switch.o [51]
InitialiseAlltoDefault       0xca3d    0x4c  Code  Gb  eepromStore.o [17]
InitialiseEepromVariables
                             0xc9dd    0x60  Code  Gb  eepromStore.o [17]
Initialtime             0x2000'ad04     0x4  Data  Gb  RobotMain.o [3]
Int64ToHexString             0x74fd    0x7c  Code  Gb  NumStrConversion.o [32]
IsAccelTimeValid             0x761f     0x4  Code  Gb  ValuesValidate.o [5]
IsAckReceived                0xd58d     0x6  Code  Gb  ResponseAPIProcess.o [5]
IsAnyFault                   0x9fc9     0xe  Code  Gb  FaultProcess.o [46]
IsCleanerDone                0xd59b     0x6  Code  Gb  ResponseAPIProcess.o [5]
IsCleanerPresent           0x1'0c7f    0x16  Code  Gb  cleanerdetectcommon.o [36]
IsContinue1Valid             0x76d9     0x4  Code  Gb  ValuesValidate.o [5]
IsCycleModeContinution       0x967b    0x10  Code  Gb  CycleMode.o [45]
IsDecelPulseCountDiffValid
                             0x7627     0x4  Code  Gb  ValuesValidate.o [5]
IsDecelTimeValid             0x7623     0x4  Code  Gb  ValuesValidate.o [5]
IsEdgeReached                0xab85    0x14  Code  Gb  RobotControl.o [41]
IsEdgeSense1Detected       0x1'1675     0x6  Code  Gb  EdgeSense1.o [18]
IsEdgeSense2Detected       0x1'1721     0x6  Code  Gb  EdgeSense2.o [18]
IsEdgeSensor1Detected        0x9831     0xe  Code  Gb  EdgeSenseCommon.o [18]
IsEdgeSensor2Detected        0x983f     0xe  Code  Gb  EdgeSenseCommon.o [18]
IsEdgeSensorEnabled          0x982b     0x6  Code  Gb  EdgeSenseCommon.o [18]
IsErrorFromCleaner           0xd5af     0x6  Code  Gb  ResponseAPIProcess.o [5]
IsFinalTargetCountReached
                             0xaba9    0x36  Code  Gb  RobotControl.o [41]
IsHeartBeatIntervalValid
                             0x762f     0x4  Code  Gb  ValuesValidate.o [5]
IsLowBatSoCValid             0x762b     0x4  Code  Gb  ValuesValidate.o [5]
IsManualCommandValid         0x760d     0xa  Code  Gb  ValuesValidate.o [5]
IsMaxReconnectTimeValid
                             0x763b     0xc  Code  Gb  ValuesValidate.o [5]
IsModeValid                  0x7609     0x4  Code  Gb  ValuesValidate.o [5]
IsMot1OverCurrentFault     0x1'0f69     0x6  Code  Gb  Mot1CurrentFault.o [47]
IsMot2OverCurrentFault     0x1'0fd1     0x6  Code  Gb  Mot2CurrentFault.o [47]
IsMot3OverCurrentFault     0x1'1039     0x6  Code  Gb  Mot3CurrentFault.o [47]
IsMotor1OverCurrentFault
                             0x9375     0x4  Code  Gb  MotCurrentFaultCommon.o [47]
IsMotor2OverCurrentFault
                             0x9379     0x4  Code  Gb  MotCurrentFaultCommon.o [47]
IsMotor3OverCurrentFault
                             0x937d     0x4  Code  Gb  MotCurrentFaultCommon.o [47]
IsNegativeEdgeReached        0x985b     0xe  Code  Gb  EdgeSenseCommon.o [18]
IsOnlyNonMotorError          0x9de9    0x1a  Code  Gb  FaultProcess.o [46]
IsPWMvalueValid              0x761b     0x4  Code  Gb  ValuesValidate.o [5]
IsPositiveEdgeReached        0x984d     0xe  Code  Gb  EdgeSenseCommon.o [18]
IsProximityDetected          0xab99    0x10  Code  Gb  RobotControl.o [41]
IsRTCFault                   0x9fbd     0xc  Code  Gb  FaultProcess.o [46]
IsRTCFreshStart              0x988f    0x10  Code  Gb  Rtc.o [39]
IsRTCSecondOccured           0x9885     0x6  Code  Gb  Rtc.o [39]
IsReturn1Valid               0x76dd     0x2  Code  Gb  ValuesValidate.o [5]
IsSchedueledTime             0x9775    0x86  Code  Gb  AutoSchedule.o [44]
IsStateValid                 0x7647    0x10  Code  Gb  ValuesValidate.o [5]
IsValidProximitySensorState
                             0xdd21    0x10  Code  Gb  proximity.o [36]
IsZigbeeNetworkJoined        0xaf57    0x34  Code  Gb  ZigbeeAPIMode.o [12]
IscycleFrequencyLimitValid
                             0x76c1     0xa  Code  Gb  ValuesValidate.o [5]
IsintervalLimitValid         0x76cb     0xa  Code  Gb  ValuesValidate.o [5]
IsparameterLimitValid        0x76d5     0x4  Code  Gb  ValuesValidate.o [5]
IswheelDiaLimitValid         0x7691    0x20  Code  Gb  ValuesValidate.o [5]
JogAndFindPosition           0x8629   0x288  Code  Gb  RobotOperation.o [43]
JogAndFindPosition::currentStatus
                        0x2000'b760     0x1  Data  Lc  RobotOperation.o [43]
JogAndFindPosition::ifFromEdge
                        0x2000'b762     0x1  Data  Lc  RobotOperation.o [43]
JogAndFindPosition::isTimeOver
                        0x2000'b763     0x1  Data  Lc  RobotOperation.o [43]
JogAndFindPosition::nextStateTimeout
                        0x2000'b768     0x4  Data  Lc  RobotOperation.o [43]
JogAndFindPosition::prevStatetime
                        0x2000'b764     0x4  Data  Lc  RobotOperation.o [43]
JogAndFindPosition::previousState
                        0x2000'b761     0x1  Data  Lc  RobotOperation.o [43]
KEY_TYPE_CMD                 0xdbe4     0x4  Data  Gb  ConfigAPIProcess.o [9]
KEY_TYPE_ID_NO               0xdbe0     0x4  Data  Gb  ConfigAPIProcess.o [9]
KEY_TYPE_VALUES              0xdbe8     0x8  Data  Gb  ConfigAPIProcess.o [9]
LOG_Pop                    0x1'c217    0x18  Code  Gb  fsl_log.o [54]
LOG_Push                   0x1'c1f5    0x22  Code  Gb  fsl_log.o [54]
LPTMR0_IRQHandler          0x1'0cfb    0x60  Code  Gb  LPTimer.o [33]
LPTMR_GetDefaultConfig     0x1'64cd    0x2a  Code  Gb  fsl_lptmr.o [2]
LPTMR_GetInstance          0x1'6439    0x20  Code  Lc  fsl_lptmr.o [2]
LPTMR_Init                 0x1'6459    0x72  Code  Gb  fsl_lptmr.o [2]
LPTMR_Initialisation       0x1'0c95    0x66  Code  Gb  LPTimer.o [33]
LTC4015_chip_array      0x2000'b988    0x10  Data  Gb  LTC4015.o [25]
LTC4015_init               0x1'2ba9    0x2a  Code  Gb  LTC4015.o [25]
LTC4015_instances       0x2000'b984     0x4  Data  Gb  LTC4015.o [25]
LTC4015_read_register      0x1'2c4d    0x28  Code  Gb  LTC4015.o [25]
LTC4015_write_register     0x1'2bfd    0x50  Code  Gb  LTC4015.o [25]
Led1InitPins               0x1'98a9    0x20  Code  Gb  Led1.o [22]
Led1TimeIncrement_ms       0x1'9a2f    0x1c  Code  Gb  Led1.o [22]
Led2InitPins               0x1'9a61    0x20  Code  Gb  Led2.o [23]
Led2TimeIncrement_ms       0x1'9bf3    0x1c  Code  Gb  Led2.o [23]
Led3InitPins               0x1'9c25    0x20  Code  Gb  Led3.o [24]
Led3TimeIncrement_ms       0x1'9dcb    0x1c  Code  Gb  Led3.o [24]
LedInit                    0x1'6539    0x12  Code  Gb  LedCommon.o [21]
LedTimeIncrement_ms        0x1'6527    0x12  Code  Gb  LedCommon.o [21]
LedTimerOn                 0x1'9a1b    0x14  Code  Lc  Led1.o [22]
LedTimerOn                 0x1'9bdf    0x14  Code  Lc  Led2.o [23]
LedTimerOn                 0x1'9db7    0x14  Code  Lc  Led3.o [24]
LoadBrushParameters        0x1'1b73    0x1e  Code  Lc  BrushControl.o [42]
LoadRobotParameters          0x7715    0x36  Code  Gb  RobotOperation.o [43]
Motor1FSM                  0x1'211d    0xaa  Code  Gb  Motor1Control.o [28]
Motor1Init                 0x1'2119     0x4  Code  Gb  Motor1Control.o [28]
Motor1Init_hal             0x1'0e49    0x4e  Code  Gb  Motor1Control_hal.o [28]
Motor1MoveNegative         0x1'0e9b    0x16  Code  Gb  Motor1Control_hal.o [28]
Motor1MovePositive         0x1'0eb1    0x16  Code  Gb  Motor1Control_hal.o [28]
Motor1Stop                 0x1'0f13     0x4  Code  Gb  Motor1Control_hal.o [28]
Motor1TimeIncrement_ms     0x1'221f    0x1c  Code  Gb  Motor1Control.o [28]
Motor2FSM                  0x1'2241    0xaa  Code  Gb  Motor2Control.o [30]
Motor2MoveNegative         0x1'1fd1    0x1c  Code  Gb  Motor2Control_hal.o [30]
Motor2MovePositive         0x1'1fed    0x1a  Code  Gb  Motor2Control_hal.o [30]
Motor2Stop                 0x1'206d     0x2  Code  Gb  Motor2Control_hal.o [30]
Motor2TimeIncrement_ms     0x1'2353    0x1c  Code  Gb  Motor2Control.o [30]
MotorDriveOff              0x1'0f1b     0x2  Code  Gb  Motor1Control_hal.o [28]
MotorDriveOn               0x1'0f17     0x4  Code  Gb  Motor1Control_hal.o [28]
NoofDataStored          0x1fff'0db4     0x4  Data  Lc  EventLoggerFlash.o [19]
OperateCleaner               0x8921   0x588  Code  Gb  RobotOperation.o [43]
OperateCleaner::cStart  0x2000'b943     0x1  Data  Lc  RobotOperation.o [43]
OperateCleaner::cleanerOpRemainingTime
                        0x2000'b954     0x4  Data  Lc  RobotOperation.o [43]
OperateCleaner::commRetryCount
                        0x2000'b942     0x1  Data  Lc  RobotOperation.o [43]
OperateCleaner::isTimeOver
                        0x2000'b941     0x1  Data  Lc  RobotOperation.o [43]
OperateCleaner::nextStateTimeout
                        0x2000'b948     0x4  Data  Lc  RobotOperation.o [43]
OperateCleaner::operateCleanerStatus
                        0x2000'b940     0x1  Data  Lc  RobotOperation.o [43]
OperateCleaner::prevCommTime
                        0x2000'b94c     0x4  Data  Lc  RobotOperation.o [43]
OperateCleaner::prevStatetime
                        0x2000'b944     0x4  Data  Lc  RobotOperation.o [43]
OperateCleaner::reconnectStartTime
                        0x2000'b950     0x4  Data  Lc  RobotOperation.o [43]
OperateLed1                0x1'98c9   0x152  Code  Gb  Led1.o [22]
OperateLed1::redLedState
                        0x1fff'0b71     0x1  Data  Lc  Led1.o [22]
OperateLed2                0x1'9a81   0x15e  Code  Gb  Led2.o [23]
OperateLed2::redLedState
                        0x1fff'0ca1     0x1  Data  Lc  Led2.o [23]
OperateLed3                0x1'9c55   0x162  Code  Gb  Led3.o [24]
OperateLed3::redLedState
                        0x1fff'0bc5     0x1  Data  Lc  Led3.o [24]
OperateLeds                0x1'6515    0x12  Code  Gb  LedCommon.o [21]
OperateMotionPauseFSM        0x908d   0x182  Code  Gb  RobotOperation.o [43]
OutStream_Write            0x1'd94d    0x46  Code  Lc  lz77_init.o [59]
PORTA_IRQHandler           0x1'2e4d    0x30  Code  Gb  PortInterrupt.o [37]
PORTC_IRQHandler           0x1'2e87    0x3a  Code  Gb  PortInterrupt.o [37]
PORT_SetPinConfig          0x1'8af9    0x22  Code  Lc  pin_mux.o [1]
PORT_SetPinMux             0x1'8b1b     0xe  Code  Lc  pin_mux.o [1]
ParseHeaderData              0x1f21    0x6c  Code  Gb  APIProcessing.o [5]
ParseHeaderDataJson          0xdb29    0x42  Code  Gb  ConfigAPIProcess.o [9]
Parse_Json                 0x1'3eb9    0xdc  Code  Gb  json.o [10]
Parse_Json_Multi           0x1'3fa1    0xfa  Code  Gb  json.o [10]
ProcessAcknowledgement       0xd5bd    0x28  Code  Lc  ResponseAPIProcess.o [5]
ProcessClearErrorCodes        0xcc1    0x86  Code  Lc  APIProcessing.o [5]
ProcessGetAutoScheduleTime
                             0x1309    0x86  Code  Lc  APIProcessing.o [5]
ProcessGetBatteryAndPVvalues
                             0x1bed   0x1ae  Code  Lc  APIProcessing.o [5]
ProcessGetChargerState        0xf3d    0x64  Code  Lc  APIProcessing.o [5]
ProcessGetCleanerMAC         0x1979    0x82  Code  Lc  APIProcessing.o [5]
ProcessGetCommDistance       0x6d25    0x32  Code  Lc  APIProcessing.o [5]
ProcessGetContinueCount
                             0x68b9    0x32  Code  Lc  APIProcessing.o [5]
ProcessGetCurrentMode        0x10b9    0x76  Code  Lc  APIProcessing.o [5]
ProcessGetCurrentStat        0x1515   0x1e2  Code  Lc  APIProcessing.o [5]
ProcessGetCycleFrequency
                             0x64b5    0x32  Code  Lc  APIProcessing.o [5]
ProcessGetDeviceInfo         0x101d    0x8c  Code  Lc  APIProcessing.o [5]
ProcessGetEdgeSenseEnabledState
                             0x13a1    0x62  Code  Lc  APIProcessing.o [5]
ProcessGetEncoderPulseTolerance
                             0x4f25    0x38  Code  Lc  APIProcessing.o [5]
ProcessGetErrorStatus         0xfa1    0x72  Code  Lc  APIProcessing.o [5]
ProcessGetHeartbeatConfig
                             0x5e33    0x42  Code  Lc  APIProcessing.o [5]
ProcessGetLastOperationStat
                             0x1705   0x17e  Code  Lc  APIProcessing.o [5]
ProcessGetLogInterval        0x66e9    0xa2  Code  Lc  APIProcessing.o [5]
ProcessGetLowBatSoC          0x1911    0x64  Code  Lc  APIProcessing.o [5]
ProcessGetMotorDirectionManual
                             0x1135    0x90  Code  Lc  APIProcessing.o [5]
ProcessGetMotorPWMAuto       0x1279    0x8a  Code  Lc  APIProcessing.o [5]
ProcessGetMotorPWMManual
                             0x11cd    0x8a  Code  Lc  APIProcessing.o [5]
ProcessGetNoofRowday         0x6e8b    0x9c  Code  Lc  APIProcessing.o [5]
ProcessGetPulseCountValues
                             0x1889    0x78  Code  Lc  APIProcessing.o [5]
ProcessGetRTCValue           0x1465    0x98  Code  Lc  APIProcessing.o [5]
ProcessGetReturnState        0x6a1d    0x32  Code  Lc  APIProcessing.o [5]
ProcessGetRfidData           0x5359   0x162  Code  Lc  APIProcessing.o [5]
ProcessGetRfidData2          0x567d   0x15c  Code  Lc  APIProcessing.o [5]
ProcessGetRfidData3          0x5a35   0x164  Code  Lc  APIProcessing.o [5]
ProcessGetRfidState          0x5cb9    0x2c  Code  Lc  APIProcessing.o [5]
ProcessGetRowLength2Data
                             0x3901   0x1aa  Code  Lc  APIProcessing.o [5]
ProcessGetRowLength3Data
                             0x3ce5   0x19c  Code  Lc  APIProcessing.o [5]
ProcessGetRowLength4Data
                             0x40c5   0x1ae  Code  Lc  APIProcessing.o [5]
ProcessGetRowLength5Data
                             0x44a1   0x1ac  Code  Lc  APIProcessing.o [5]
ProcessGetRowLength6Data
                             0x4875   0x1aa  Code  Lc  APIProcessing.o [5]
ProcessGetRowLength7Data
                             0x4cad   0x166  Code  Lc  APIProcessing.o [5]
ProcessGetRowLengthData
                             0x3421   0x2bc  Code  Lc  APIProcessing.o [5]
ProcessGetSensorStatus       0x4e69    0xa4  Code  Lc  APIProcessing.o [5]
ProcessGetTcControlMode
                             0x5169    0x30  Code  Lc  APIProcessing.o [5]
ProcessGetTemperaturevalues
                             0x1d9b    0xe2  Code  Lc  APIProcessing.o [5]
ProcessGetTrackInfo          0x2921   0x1b4  Code  Lc  APIProcessing.o [5]
ProcessGetTrackInfo2         0x2d11   0x1a6  Code  Lc  APIProcessing.o [5]
ProcessGetWheelDia           0x6349    0x98  Code  Lc  APIProcessing.o [5]
ProcessGetZigbeeConfig       0x1a29    0xcc  Code  Lc  APIProcessing.o [5]
ProcessGetZigbeeNetworkParams
                             0x1b0d    0xcc  Code  Lc  APIProcessing.o [5]
ProcessReceivedJsonData
                             0x5e97    0xd8  Code  Gb  APIProcessing.o [5]
ProcessReceivedJsonData_config
                             0xd9cd   0x14a  Code  Gb  ConfigAPIProcess.o [9]
ProcessResetToDefaults       0x1a09    0x16  Code  Lc  APIProcessing.o [5]
ProcessResetZigbeeNetwork
                             0x22a5    0x96  Code  Lc  APIProcessing.o [5]
ProcessResponse              0xd70d    0x6e  Code  Gb  ResponseAPIProcess.o [5]
ProcessSendInvalidCommand
                              0x425    0x16  Code  Lc  APIProcessing.o [5]
ProcessSetAutoScheduleTime
                              0x811    0xd6  Code  Lc  APIProcessing.o [5]
ProcessSetCleanerMAC         0x2ee5    0xb0  Code  Lc  APIProcessing.o [5]
ProcessSetCommDistance       0x6c49    0xa8  Code  Lc  APIProcessing.o [5]
ProcessSetContinue           0x67a1   0x118  Code  Lc  APIProcessing.o [5]
ProcessSetCycleFrequency
                             0x63f1    0x9c  Code  Lc  APIProcessing.o [5]
ProcessSetDeviceInfo          0xbd5    0xb0  Code  Lc  APIProcessing.o [5]
ProcessSetEdgeSensorState
                              0x93d    0xb4  Code  Lc  APIProcessing.o [5]
ProcessSetEncoderPulseTolerance
                             0x4f69    0x9e  Code  Lc  APIProcessing.o [5]
ProcessSetHeartbeatConfig
                             0x5d49    0xea  Code  Lc  APIProcessing.o [5]
ProcessSetLogInterval        0x64f1   0x1f2  Code  Lc  APIProcessing.o [5]
ProcessSetLowBatSoC           0xd75    0xa8  Code  Lc  APIProcessing.o [5]
ProcessSetManualDirection
                              0x565   0x15a  Code  Lc  APIProcessing.o [5]
ProcessSetMode                0x43b    0xc0  Code  Lc  APIProcessing.o [5]
ProcessSetMotorPWMAuto        0x785    0x6a  Code  Lc  APIProcessing.o [5]
ProcessSetMotorPWMManual
                              0x6dd    0x82  Code  Lc  APIProcessing.o [5]
ProcessSetMotorPwm           0x1f99    0xfc  Code  Lc  APIProcessing.o [5]
ProcessSetNoofRowday         0x6d61   0x12a  Code  Lc  APIProcessing.o [5]
ProcessSetPulseCount          0xe61    0xdc  Code  Lc  APIProcessing.o [5]
ProcessSetRTCValue            0xa71    0xee  Code  Lc  APIProcessing.o [5]
ProcessSetReturnState        0x68eb    0xb2  Code  Lc  APIProcessing.o [5]
ProcessSetRfidData           0x51a9   0x1a4  Code  Lc  APIProcessing.o [5]
ProcessSetRfidData2          0x54c9   0x1a6  Code  Lc  APIProcessing.o [5]
ProcessSetRfidData3          0x57e5   0x1a8  Code  Lc  APIProcessing.o [5]
ProcessSetRfidState          0x5be5    0xa2  Code  Lc  APIProcessing.o [5]
ProcessSetRowLength2Data
                             0x36e1   0x20c  Code  Lc  APIProcessing.o [5]
ProcessSetRowLength3Data
                             0x3ac5   0x20a  Code  Lc  APIProcessing.o [5]
ProcessSetRowLength4Data
                             0x3e91   0x20a  Code  Lc  APIProcessing.o [5]
ProcessSetRowLength5Data
                             0x4285   0x20a  Code  Lc  APIProcessing.o [5]
ProcessSetRowLength6Data
                             0x465d   0x20e  Code  Lc  APIProcessing.o [5]
ProcessSetRowLength7Data
                             0x4a41   0x210  Code  Lc  APIProcessing.o [5]
ProcessSetRowLengthData
                             0x301d   0x3d8  Code  Lc  APIProcessing.o [5]
ProcessSetTcControlMode
                             0x5085    0xbc  Code  Lc  APIProcessing.o [5]
ProcessSetTrackInfo          0x2755   0x1bc  Code  Lc  APIProcessing.o [5]
ProcessSetTrackInfo2         0x2ae5   0x1d2  Code  Lc  APIProcessing.o [5]
ProcessSetWheelDia           0x61bd   0x110  Code  Lc  APIProcessing.o [5]
ProcessSetZigbeeConfig       0x2105   0x154  Code  Lc  APIProcessing.o [5]
ProcessStatusResponse        0xd5e5    0x8e  Code  Lc  ResponseAPIProcess.o [5]
ProximityInit                0xdd4d    0x2e  Code  Gb  proximity.o [36]
ProximityTimeIncrement_ms
                             0xddb1    0x30  Code  Gb  proximity.o [36]
Proximity_Irq                0xdd31    0x1c  Code  Gb  proximity.o [36]
Pwm1Init                   0x1'654d    0x52  Code  Gb  Pwm1.o [29]
PwmChangeTimeIncrement_ms
                             0xabe5   0x14a  Code  Gb  RobotControl.o [41]
QuadDecoderInit            0x1'378b    0x62  Code  Gb  QuadDecoder.o [48]
QuadDecoderTimer_ms        0x1'382d     0xa  Code  Gb  QuadDecoder.o [48]
RECordMemory_size       0x1fff'0624     0x4  Data  Gb  SDcardoperation.o [49]
RFID_10dig_String       0x1fff'0c1c     0xc  Data  Gb  rfid.o [38]
RFID_Sense_Time_Increment
                             0x92a1    0x1c  Code  Gb  RobotOperation.o [43]
RTCFreshStartFlag       0x1fff'0e03     0x1  Data  Lc  Rtc.o [39]
RTCInit                      0x989f    0x9c  Code  Gb  Rtc.o [39]
RTC_CheckDatetimeFormat
                           0x1'1769    0x9a  Code  Gb  fsl_rtc.o [2]
RTC_ConvertDatetimeToSeconds
                           0x1'1803    0x7a  Code  Gb  fsl_rtc.o [2]
RTC_ConvertSecondsToDatetime
                           0x1'187d    0xd6  Code  Gb  fsl_rtc.o [2]
RTC_EnableInterrupts       0x1'1a45    0x30  Code  Gb  fsl_rtc.o [2]
RTC_GetDatetime            0x1'1a19    0x1e  Code  Gb  fsl_rtc.o [2]
RTC_GetDatetimeSeconds     0x1'1a37     0x4  Code  Gb  fsl_rtc.o [2]
RTC_GetDefaultConfig       0x1'19c5    0x24  Code  Gb  fsl_rtc.o [2]
RTC_GetStatusFlags         0x1'1a75    0x2c  Code  Gb  fsl_rtc.o [2]
RTC_Init                   0x1'1955    0x6e  Code  Gb  fsl_rtc.o [2]
RTC_Seconds_IRQHandler       0x987d     0x8  Code  Gb  Rtc.o [39]
RTC_SetDatetime            0x1'19e9    0x2e  Code  Gb  fsl_rtc.o [2]
RawSerial::putc(int)       0x1'a4a9     0xe  Code  Gb  RawSerial.o [55]
ReadEEPROM                 0x1'391d    0x54  Code  Gb  EepromMain.o [17]
ReadEEPROM_Byte            0x1'39c5    0x54  Code  Gb  EepromMain.o [17]
ReadFlash                  0x1'8f17    0x18  Code  Gb  usr_flash.o [17]
ReadFlashAllLog            0x1'3caf    0xac  Code  Gb  EventLoggerFlash.o [19]
ReadFromLogFlash             0xd91f     0x4  Code  Gb  EventLogger.o [19]
Region$$Table$$Base        0x1'ff00           --   Gb  - Linker created -
Region$$Table$$Limit       0x1'ff38           --   Gb  - Linker created -
RegisterHALCallbacks       0x1'77e9    0x20  Code  Gb  ZigbeeAPIHAL.o [55]
RelayFSM                   0x1'0d85    0x7e  Code  Gb  Relay.o [40]
RelayTimeIncrement_ms      0x1'0e21    0x1c  Code  Gb  Relay.o [40]
ReportError                  0x9fa9    0x14  Code  Lc  FaultProcess.o [46]
ReportErrorOnZigeeStart
                             0x9f97     0xe  Code  Gb  FaultProcess.o [46]
ReportTrackChangerStatus
                             0x2379    0xb8  Code  Gb  APIProcessing.o [5]
RequestActivityLog           0x2441   0x2a0  Code  Lc  APIProcessing.o [5]
RequestLog                   0x6a5d   0x180  Code  Lc  APIProcessing.o [5]
ResetRfidFSM                 0xe295    0x7e  Code  Gb  rfid.o [38]
ResetRfidFSM::currentStatus_r
                        0x1fff'0be6     0x1  Data  Lc  rfid.o [38]
ResetRfidFSM::resetOffTime
                        0x1fff'0c18     0x4  Data  Lc  rfid.o [38]
RfidInit                     0xde37    0x62  Code  Gb  rfid.o [38]
RfidResetState          0x1fff'0be5     0x1  Data  Gb  rfid.o [38]
RfidState               0x1fff'0e07     0x1  Data  Gb  rfid.o [38]
RfidTimerIncrement_ms        0xde99    0x30  Code  Gb  rfid.o [38]
RobotFSM                     0xa425   0x760  Code  Gb  RobotControl.o [41]
RobotFSM::decelStartCount
                        0x1fff'0d78     0x4  Data  Lc  RobotControl.o [41]
RobotFSM::dirChangeFlag
                        0x1fff'0d61     0x1  Data  Lc  RobotControl.o [41]
RobotFSM::normalStopFlag
                        0x1fff'0d62     0x1  Data  Lc  RobotControl.o [41]
RobotInit                    0xa379     0xa  Code  Gb  RobotControl.o [41]
RobotOperate                 0x7769   0x154  Code  Gb  RobotOperation.o [43]
RobotOperationTimeIncrement_ms
                             0x9221    0x22  Code  Gb  RobotOperation.o [43]
RobotTimeIncrement_ms        0xad5d    0x16  Code  Gb  RobotControl.o [41]
Robot_Error_Count       0x2000'b4bd     0x1  Data  Gb  FaultProcess.o [46]
Robot_Error_Count1      0x2000'b4be     0x1  Data  Gb  FaultProcess.o [46]
Robot_Error_Flag        0x1fff'0d60     0x1  Data  Gb  RobotControl.o [41]
RotateSense1Init           0x1'359d    0x38  Code  Gb  RotateSense1.o [48]
RotateSense1TimeIncrement_ms
                           0x1'361b    0x2a  Code  Gb  RotateSense1.o [48]
RotateSense2Init           0x1'3691    0x38  Code  Gb  RotateSense2.o [48]
RotateSense2TimeIncrement_ms
                           0x1'3705    0x2a  Code  Gb  RotateSense2.o [48]
RotateSenseInit              0xbaf7    0x2e  Code  Gb  RotateSenseCommon.o [48]
RotateSenseTimeIncrement_ms
                             0xbbc7    0x1e  Code  Gb  RotateSenseCommon.o [48]
Rotate_Sense1_Irq          0x1'3581    0x1c  Code  Gb  RotateSense1.o [48]
Rotate_Sense2_Irq          0x1'3675    0x1c  Code  Gb  RotateSense2.o [48]
Row1getvalue            0x2000'bb2c     0x4  Data  Gb  APIProcessing.o [5]
Row1value               0x2000'bb28     0x4  Data  Gb  APIProcessing.o [5]
Row_Num_Valid                0x7617     0x4  Code  Gb  ValuesValidate.o [5]
RxDatatoMain            0x2000'b90c     0x4  Data  Lc  ZigbeeAPIHAL.o [55]
SCHEDULE_LOG            0x1fff'0a88     0x1  Data  Gb  RobotOperation.o [43]
SD_MOUNT_STATUS         0x2000'ad00     0x1  Data  Gb  RobotMain.o [3]
SD_M_IN_Init               0x1'52c1    0x1e  Code  Gb  spi.o [50]
SD_READ_Byte               0x1'532d    0x88  Code  Gb  spi.o [50]
SD_SOC_End                   0x704f    0x58  Code  Gb  APIProcessing.o [5]
SD_SOC_Start                 0x6ff9    0x56  Code  Gb  APIProcessing.o [5]
SD_Write_Byte              0x1'52df    0x4e  Code  Gb  spi.o [50]
SDbit                   0x2000'b862     0x1  Data  Gb  spi.o [50]
SDcardMount                  0xe7a5    0x8e  Code  Gb  SDcardoperation.o [49]
SDcardMount::mountcount
                        0x1fff'0622     0x1  Data  Lc  SDcardoperation.o [49]
SDcardOperation              0xf481    0x5e  Code  Gb  SDcardoperation.o [49]
SDdelay1                   0x1'53c5     0xa  Code  Gb  spi.o [50]
SDerrorlog              0x2000'b4c8    0x30  Data  Gb  FaultProcess.o [46]
SHT$$INIT_ARRAY$$Base      0x2'011c           --   Gb  - Linker created -
SHT$$INIT_ARRAY$$Limit     0x2'0124           --   Gb  - Linker created -
SHT$$PREINIT_ARRAY$$Base
                           0x2'011c           --   Gb  - Linker created -
SHT$$PREINIT_ARRAY$$Limit
                           0x2'011c           --   Gb  - Linker created -
SMB_Irq                      0xb541     0xa  Code  Gb  LTC4015_main.o [25]
SOC_SDcurntcount        0x2000'ba88     0x4  Data  Gb  SDcardoperation.o [49]
SOC_SDlogTimer          0x2000'ba84     0x4  Data  Gb  SDcardoperation.o [49]
SOC_SDlogtimer               0xe99b     0x4  Code  Gb  SDcardoperation.o [49]
SOC_log_Data                 0xe9b5   0x16a  Code  Gb  SDcardoperation.o [49]
SOC_logtime             0x2000'ba80     0x1  Data  Gb  SDcardoperation.o [49]
SOClog_main                  0xeb1f    0x42  Code  Gb  SDcardoperation.o [49]
SPI0_DriverIRQHandler      0x1'e271    0x20  Code  Gb  fsl_dspi.o [2]
SPI1_DriverIRQHandler      0x1'e295    0x1e  Code  Gb  fsl_dspi.o [2]
SPI2_DriverIRQHandler      0x1'e2b9    0x20  Code  Gb  fsl_dspi.o [2]
SPICount                0x2000'b85d     0x1  Data  Gb  spi.o [50]
SPIData                 0x2000'b85e     0x1  Data  Gb  spi.o [50]
SPIData1                0x2000'b85f     0x1  Data  Gb  spi.o [50]
SendCommandToCleaner         0xd675    0x90  Code  Gb  ResponseAPIProcess.o [5]
SendDatatoCoordinator      0x1'255d    0x1a  Code  Gb  ZigbeeAPI.o [55]
SendDatatoRemoteNode       0x1'258b    0x4a  Code  Gb  ZigbeeAPI.o [55]
Serial_Debug                 0xd917     0x2  Code  Gb  serial_debug.o [14]
Serial_Debug_Float           0xd91b     0x2  Code  Gb  serial_debug.o [14]
Serial_Debug_Num             0xd919     0x2  Code  Gb  serial_debug.o [14]
SetBrushMotorAllPwm        0x1'681f    0x26  Code  Gb  BrushMotorControl.o [26]
SetBrushMotorTargetState
                           0x1'6819     0x6  Code  Gb  BrushMotorControl.o [26]
SetBrushPwmCh1DutyCycle
                           0x1'6905    0x2c  Code  Gb  BrushPwm.o [27]
SetBrushPwmCh2DutyCycle
                           0x1'6931    0x2c  Code  Gb  BrushPwm.o [27]
SetCurrentModeRobotParameter
                             0xa383    0x1a  Code  Gb  RobotControl.o [41]
SetCycleModeState            0x957b     0x6  Code  Gb  CycleMode.o [45]
SetDefaultAutoScheduledTime
                             0xa10d    0x10  Code  Gb  DefaultValues.o [16]
SetDefaultBrushPwmAutoModeParameter
                             0xa0cd     0x6  Code  Gb  DefaultValues.o [16]
SetDefaultBrushPwmNormalModeParameter
                             0xa0c5     0x8  Code  Gb  DefaultValues.o [16]
SetDefaultCommDistance       0xa2dd     0xc  Code  Gb  DefaultValues.o [16]
SetDefaultContinue           0xa2c1    0x10  Code  Gb  DefaultValues.o [16]
SetDefaultCountRange         0xa0ff     0xe  Code  Gb  DefaultValues.o [16]
SetDefaultCycleFrequency
                             0xa2b9     0x8  Code  Gb  DefaultValues.o [16]
SetDefaultDevIDInfo          0xa059    0x2c  Code  Gb  DefaultValues.o [16]
SetDefaultEdgeSensorEnabledState
                             0xa161     0x6  Code  Gb  DefaultValues.o [16]
SetDefaultEncoderPulseTolerance
                             0xa24f     0xc  Code  Gb  DefaultValues.o [16]
SetDefaultHeartbeatConfig
                             0xa173    0x14  Code  Gb  DefaultValues.o [16]
SetDefaultIloadConfigValues
                             0xa11d    0x1e  Code  Gb  DefaultValues.o [16]
SetDefaultLogInterval        0xa28d    0x2c  Code  Gb  DefaultValues.o [16]
SetDefaultMaxMotCurrentLimits
                             0xa13b    0x18  Code  Gb  DefaultValues.o [16]
SetDefaultMinBatSoc          0xa155     0xc  Code  Gb  DefaultValues.o [16]
SetDefaultNil                0xa051     0x2  Code  Gb  DefaultValues.o [16]
SetDefaultNoofRowday         0xa2e9    0x14  Code  Gb  DefaultValues.o [16]
SetDefaultOperationMode
                             0xa16d     0x6  Code  Gb  DefaultValues.o [16]
SetDefaultPwmCycleAutoModeParameter
                             0xa08d     0x6  Code  Gb  DefaultValues.o [16]
SetDefaultPwmCycleManualModeParameter
                             0xa085     0x8  Code  Gb  DefaultValues.o [16]
SetDefaultPwmEmergencyModeParameter
                             0xa0bd     0x8  Code  Gb  DefaultValues.o [16]
SetDefaultPwmManulModeParameter
                             0xa0a3    0x1a  Code  Gb  DefaultValues.o [16]
SetDefaultReturnState        0xa2d1     0x6  Code  Gb  DefaultValues.o [16]
SetDefaultRfidData           0xa1fd     0xc  Code  Gb  DefaultValues.o [16]
SetDefaultRfidData2          0xa209    0x12  Code  Gb  DefaultValues.o [16]
SetDefaultRfidData3          0xa21b    0x12  Code  Gb  DefaultValues.o [16]
SetDefaultRfidState          0xddf9     0xa  Code  Gb  rfid.o [38]
SetDefaultRowLength          0xa22d    0x22  Code  Gb  DefaultValues.o [16]
SetDefaultRowLength2         0xa2fd     0xc  Code  Gb  DefaultValues.o [16]
SetDefaultRowLength3         0xa309     0xa  Code  Gb  DefaultValues.o [16]
SetDefaultRowLength4         0xa32f     0xc  Code  Gb  DefaultValues.o [16]
SetDefaultRowLength5         0xa33b     0xc  Code  Gb  DefaultValues.o [16]
SetDefaultRowLength6         0xa347     0xc  Code  Gb  DefaultValues.o [16]
SetDefaultRowLength7         0xa353     0xc  Code  Gb  DefaultValues.o [16]
SetDefaultTcControlMode
                             0xa25b     0x6  Code  Gb  DefaultValues.o [16]
SetDefaultTrackInfo          0xa1c9    0x14  Code  Gb  DefaultValues.o [16]
SetDefaultTrackInfo2         0xa1dd    0x16  Code  Gb  DefaultValues.o [16]
SetDefaultWheelDia           0xa261    0x1a  Code  Gb  DefaultValues.o [16]
SetDefaultZigbeeConfig       0xa153     0x2  Code  Gb  DefaultValues.o [16]
SetFault                     0x9edf     0x6  Code  Gb  FaultProcess.o [46]
SetInitialOperationMode
                             0x8f6d     0xa  Code  Gb  RobotOperation.o [43]
SetIsAckReceived             0xd597     0x4  Code  Gb  ResponseAPIProcess.o [5]
SetLogEvent                  0xd91d     0x2  Code  Gb  EventLogger.o [19]
SetMotionCommand             0x9211     0x2  Code  Gb  RobotOperation.o [43]
SetMotionPauseState          0x9075     0x6  Code  Gb  RobotOperation.o [43]
SetMotor1AllPwm            0x1'21d9    0x14  Code  Gb  Motor1Control.o [28]
SetMotor1TargetState       0x1'21cd     0x6  Code  Gb  Motor1Control.o [28]
SetMotor2AllPwm            0x1'22fd    0x26  Code  Gb  Motor2Control.o [30]
SetMotor2TargetState       0x1'22f1     0x6  Code  Gb  Motor2Control.o [30]
SetMotorFault                0x9e6d    0x72  Code  Lc  FaultProcess.o [46]
SetOperationMode             0x8f8d    0xe8  Code  Gb  RobotOperation.o [43]
SetParameterValue_int        0x6111    0x2a  Code  Lc  APIProcessing.o [5]
SetPrescaleValue             0xb771    0xa4  Code  Gb  LTC4015_main.o [25]
SetProximityCount            0xddab     0x6  Code  Gb  proximity.o [36]
SetPulseFrequency          0x1'6645    0x2c  Code  Gb  Pwm1.o [29]
SetPwm1Ch1DutyCycle        0x1'6677    0x2c  Code  Gb  Pwm1.o [29]
SetPwm2Ch1DutyCycle        0x1'6895    0x2c  Code  Gb  Pwm2.o [31]
SetPwm2Ch2DutyCycle        0x1'68c1    0x2c  Code  Gb  Pwm2.o [31]
SetRTCDateTime               0x9949    0x7a  Code  Gb  Rtc.o [39]
SetRTCDefaultDateTime        0x99c5    0x4c  Code  Gb  Rtc.o [39]
SetReceivedMACAddress         0x411     0xa  Code  Gb  APIProcessing.o [5]
SetRfidResetState            0xe28d     0x6  Code  Gb  rfid.o [38]
SetRfidState                 0xde03     0x8  Code  Gb  rfid.o [38]
SetRobotState                0xa39d     0x8  Code  Gb  RobotControl.o [41]
SetScheduleTime              0x976d     0x8  Code  Gb  AutoSchedule.o [44]
SetTcControlMode             0x76f1     0x8  Code  Gb  RobotOperation.o [43]
SetTrackChangerError2        0x770d     0x8  Code  Gb  RobotOperation.o [43]
SetUartType                  0xbac5     0x6  Code  Gb  CommCommon.o [6]
SetUpdateBrushPwmCh1DutyCycle
                           0x1'695d     0x4  Code  Gb  BrushPwm.o [27]
SetUpdateBrushPwmCh2DutyCycle
                           0x1'6961     0x4  Code  Gb  BrushPwm.o [27]
SetUpdatePwm1Ch1DutyCycle
                           0x1'66a3    0x14  Code  Gb  Pwm1.o [29]
SetZigbeeAPIEncryptionLinkKey
                           0x1'24d3    0x16  Code  Gb  ZigbeeAPI.o [55]
SetZigbeeAPIEncryptionOptions
                           0x1'2521    0x14  Code  Gb  ZigbeeAPI.o [55]
SetZigbeeAPIJoinVerification
                           0x1'2485     0xa  Code  Gb  ZigbeeAPI.o [55]
SetZigbeeAPIPanId          0x1'2477     0xe  Code  Gb  ZigbeeAPI.o [55]
SetZigbeeAPIResetNetwork
                           0x1'254b     0xc  Code  Gb  ZigbeeAPI.o [55]
SetZigbeeAPISecurityEnable
                           0x1'24f5    0x14  Code  Gb  ZigbeeAPI.o [55]
SetZigbeeAPIWriteConfig
                           0x1'2541     0xa  Code  Gb  ZigbeeAPI.o [55]
SleepDelay(unsigned int)
                           0x1'78bd    0x16  Code  Gb  Timer.o [55]
Soc_Str                 0x2000'b644     0xc  Data  Gb  APIProcessing.o [5]
SplitString                  0x7369    0x4a  Code  Gb  NumStrConversion.o [32]
StartBrush                 0x1'1b27    0x36  Code  Gb  BrushControl.o [42]
StartProximityCount          0xdd7b    0x22  Code  Gb  proximity.o [36]
StartPulse                 0x1'65f1    0x44  Code  Gb  Pwm1.o [29]
StartPwm1Ch1               0x1'66b7     0xe  Code  Gb  Pwm1.o [29]
StartQuadDecoderCount      0x1'37f3    0x1a  Code  Gb  QuadDecoder.o [48]
StartRotateSense1Count     0x1'35d5    0x2c  Code  Gb  RotateSense1.o [48]
StartRotateSense2Count     0x1'36c9    0x22  Code  Gb  RotateSense2.o [48]
StartRotateSenseCount        0xbb43    0x1e  Code  Gb  RotateSenseCommon.o [48]
Stat                    0x1fff'0e00     0x1  Data  Lc  diskio.o [49]
StopBrush                  0x1'1b5d     0xa  Code  Gb  BrushControl.o [42]
StopBrushPwmCh2            0x1'6979     0x4  Code  Gb  BrushPwm.o [27]
StopPulse                  0x1'6635     0xe  Code  Gb  Pwm1.o [29]
StopPwm1Ch1                0x1'66d7     0xc  Code  Gb  Pwm1.o [29]
StopPwm2Ch2                0x1'6901     0x4  Code  Gb  Pwm2.o [31]
StopRotateSense1Count      0x1'3601     0xc  Code  Gb  RotateSense1.o [48]
StopRotateSense2Count      0x1'36eb     0xc  Code  Gb  RotateSense2.o [48]
StopRotateSenseCount         0xbb61    0x18  Code  Gb  RotateSenseCommon.o [48]
StoreLastOperationData       0xa3f5    0x28  Code  Lc  RobotControl.o [41]
StrFormatPrintf            0x1'c017   0x1d8  Code  Gb  fsl_str.o [54]
SwitchLed3Off              0x1'9c45     0x4  Code  Gb  Led3.o [24]
SwitchLed3On               0x1'9c49     0x2  Code  Gb  Led3.o [24]
SystemCoreClock         0x1fff'0dfc     0x4  Data  Gb  system_MK22FA12.o [53]
SystemInit                 0x1'fcb9    0x20  Code  Gb  system_MK22FA12.o [53]
TCNextIndex             0x1fff'0a83     0x1  Data  Gb  RobotOperation.o [43]
TC_Reverse_TimeOver     0x1fff'0a8c     0x1  Data  Lc  RobotOperation.o [43]
TC_Reverse_Time_Increment
                             0x92bd    0x1c  Code  Gb  RobotOperation.o [43]
TC_Reverse_timecount    0x1fff'0ac8     0x4  Data  Lc  RobotOperation.o [43]
TcControlMode           0x1fff'0a7e     0x1  Data  Gb  RobotOperation.o [43]
TempSenseTimer_ms          0x1'3a81     0xa  Code  Gb  i2c_init.o [20]
TempSensorI2cTimer      0x2000'bb40     0x4  Data  Gb  i2c_init.o [20]
Temperature_SDcurntcount
                        0x2000'ba7c     0x4  Data  Gb  SDcardoperation.o [49]
Temperature_SDlogTimer  0x2000'ba78     0x4  Data  Gb  SDcardoperation.o [49]
Temperature_SDlogtimer       0xe909     0x6  Code  Gb  SDcardoperation.o [49]
Temperature_log_Data         0xe835    0xc8  Code  Gb  SDcardoperation.o [49]
Temperature_logtime     0x2000'ba74     0x1  Data  Gb  SDcardoperation.o [49]
Temperaturelog_main          0xe90f    0x42  Code  Gb  SDcardoperation.o [49]
Timer::Timer()             0x1'7875    0x10  Code  Gb  Timer.o [55]
Timer::read_ms()           0x1'7899     0x2  Code  Gb  Timer.o [55]
Timer::start()             0x1'788d     0xc  Code  Gb  Timer.o [55]
Timer::~Timer()            0x1'7885     0x2  Code  Gb  Timer.o [55]
TimerMilliSecondTimerHandler()
                           0x1'78b3     0xa  Code  Gb  Timer.o [55]
Timetodelete            0x2000'ad08     0x4  Data  Gb  RobotMain.o [3]
TrackChangerOperate          0x79d1   0xc0c  Code  Gb  RobotOperation.o [43]
TrackChangerOperate::cleanerIndex
                        0x1fff'0a9c     0x2  Data  Lc  RobotOperation.o [43]
TrackChangerOperate::currentDirection
                        0x1fff'0a95     0x1  Data  Lc  RobotOperation.o [43]
TrackChangerOperate::isTimeOver
                        0x1fff'0a97     0x1  Data  Lc  RobotOperation.o [43]
TrackChangerOperate::nextStateTimeout
                        0x1fff'0ad0     0x4  Data  Lc  RobotOperation.o [43]
TrackChangerOperate::numberOfRows
                        0x1fff'0a93     0x1  Data  Lc  RobotOperation.o [43]
TrackChangerOperate::numberOfRows1
                        0x1fff'0a94     0x1  Data  Lc  RobotOperation.o [43]
TrackChangerOperate::prevStatetime
                        0x1fff'0acc     0x4  Data  Lc  RobotOperation.o [43]
TrackChangerOperate::rowsDone
                        0x1fff'0a9a     0x2  Data  Lc  RobotOperation.o [43]
TrackChangerOperate::tcStart
                        0x1fff'0a96     0x1  Data  Lc  RobotOperation.o [43]
TransmitWelcomeMessage       0x613b    0x58  Code  Gb  APIProcessing.o [5]
TxDatatoMain            0x2000'b910     0x4  Data  Lc  ZigbeeAPIHAL.o [55]
TxFrameZB::TxFrameZB(unsigned long long, unsigned short, unsigned char, unsigned char, unsigned char const *, unsigned short)
                           0x1'a043    0x6a  Code  Gb  ZigbeeFrames.o [55]
UART0_RX_TX_DriverIRQHandler
                           0x1'4499     0xa  Code  Gb  fsl_uart.o [2]
UART1_RX_TX_IRQHandler     0x1'3221    0x62  Code  Gb  DebugUart.o [11]
UART2_RX_TX_IRQHandler     0x1'282d    0x66  Code  Gb  ZigbeeUart.o [13]
UART3_RX_TX_IRQHandler       0xde13    0x24  Code  Gb  rfid.o [38]
UART4_RX_TX_IRQHandler     0x1'ccd1    0x6c  Code  Gb  BmsUart.o [7]
UART5_RX_TX_IRQHandler     0x1'3411    0x74  Code  Gb  ConfigUart.o [8]
UART_DisableInterrupts     0x1'439f    0x2a  Code  Gb  fsl_uart.o [2]
UART_EnableInterrupts      0x1'4375    0x2a  Code  Gb  fsl_uart.o [2]
UART_GetDefaultConfig      0x1'4335    0x36  Code  Gb  fsl_uart.o [2]
UART_GetEnabledInterrupts
                           0x1'43c9    0x1e  Code  Gb  fsl_uart.o [2]
UART_GetInstance           0x1'40d9    0x54  Code  Gb  fsl_uart.o [2]
UART_GetStatusFlags        0x1'43e7    0x18  Code  Gb  fsl_uart.o [2]
UART_Init                  0x1'4149   0x1ba  Code  Gb  fsl_uart.o [2]
UART_ReadBlocking          0x1'4417    0x66  Code  Gb  fsl_uart.o [2]
UART_WriteBlocking         0x1'43ff    0x18  Code  Gb  fsl_uart.o [2]
USART_STATE             0x2000'ad01     0x1  Data  Gb  RobotMain.o [3]
UartRxInterruptDisable  0x2000'b918     0x4  Data  Lc  ZigbeeAPIHAL.o [55]
UartRxInterruptEnable   0x2000'b914     0x4  Data  Lc  ZigbeeAPIHAL.o [55]
UartTransmit                 0xba39    0x44  Code  Gb  CommCommon.o [6]
UartTransmitType             0xba7d    0x42  Code  Gb  CommCommon.o [6]
UpdateBrushMotorNegativePwm
                           0x1'20d1    0x10  Code  Gb  BrushMotorControl_hal.o [26]
UpdateBrushMotorPositivePwm
                           0x1'20c1    0x10  Code  Gb  BrushMotorControl_hal.o [26]
UpdateBrushMotorPwm        0x1'6845    0x18  Code  Gb  BrushMotorControl.o [26]
UpdateMotor1NegativeFrequency
                           0x1'0ee7    0x16  Code  Gb  Motor1Control_hal.o [28]
UpdateMotor1NegativePwm
                           0x1'0ee5     0x2  Code  Gb  Motor1Control_hal.o [28]
UpdateMotor1PositiveFrequency
                           0x1'0ecb    0x18  Code  Gb  Motor1Control_hal.o [28]
UpdateMotor1PositivePwm
                           0x1'0ec9     0x2  Code  Gb  Motor1Control_hal.o [28]
UpdateMotor1Pwm            0x1'21ed    0x18  Code  Gb  Motor1Control.o [28]
UpdateMotor2NegativePwm
                           0x1'2027    0x14  Code  Gb  Motor2Control_hal.o [30]
UpdateMotor2PositivePwm
                           0x1'2011    0x16  Code  Gb  Motor2Control_hal.o [30]
UpdateMotor2Pwm            0x1'2323    0x18  Code  Gb  Motor2Control.o [30]
UpdatePulseFrequencyAndRun
                           0x1'65a1    0x48  Code  Gb  Pwm1.o [29]
UpdateWDTimerValue         0x1'5419    0x2c  Code  Gb  WDTimer.o [35]
UpdateZigbeeConfigChangeFlag
                             0xb1ef     0x6  Code  Gb  ZigbeeAPIMode.o [12]
UpdateZigbeeNetworkResetFlag
                             0xb1f5     0x6  Code  Gb  ZigbeeAPIMode.o [12]
Vbat_str                0x2000'b614     0xc  Data  Gb  APIProcessing.o [5]
VerifyAndSetData             0xe189    0xe2  Code  Gb  rfid.o [38]
Vin_str                 0x2000'b608     0xc  Data  Gb  APIProcessing.o [5]
Virtual function table for DigiLog::DigiLogger
                           0x1'ffa8    0x14  Data  Gb  DigiLogger.o [55]
Virtual function table for DigiLog::DigiLoggerSerial
                           0x1'ffbc    0x14  Data  Gb  DigiLoggerSerial.o [55]
Virtual function table for XBeeLib::FH_RxPacketZB
                           0x1'ffd0    0x14  Data  Gb  FH_RxPacketZB.o [55]
Virtual function table for XBeeLib::XBee
                           0x1'faac    0x30  Data  Gb  XBee.o [55]
Virtual function table for XBeeLib::XBeeZB
                           0x1'fb0c    0x30  Data  Gb  XBeeZB.o [55]
WDOG_GetDefaultConfig      0x1'9361    0x3a  Code  Gb  fsl_wdog.o [2]
WDOG_Init                  0x1'939d    0x82  Code  Gb  fsl_wdog.o [2]
WDOG_Refresh               0x1'9425    0x18  Code  Gb  fsl_wdog.o [2]
WDTimerInit                0x1'53d9    0x40  Code  Gb  WDTimer.o [35]
WDTimerRefresh             0x1'5445    0x26  Code  Gb  WDTimer.o [35]
WDTimerRefresh::wdog_refresh_time
                        0x2000'bb58     0x4  Data  Lc  WDTimer.o [35]
WriteArray                 0x1'8e8d     0x8  Code  Gb  usr_flash.o [17]
WriteEEPROM                0x1'38c5    0x58  Code  Gb  EepromMain.o [17]
WriteEEPROM_Byte           0x1'3971    0x54  Code  Gb  EepromMain.o [17]
WriteKeyandDatatoFlash     0x1'3e05    0x34  Code  Gb  EventLoggerFlash.o [19]
WritingToOneAddress        0x1'8e77    0x16  Code  Gb  usr_flash.o [17]
XBeeLib::FH_IoDataSampeZB::unregister_io_data_cb()
                           0x1'a255     0x6  Code  Gb  FH_IoDataSampleZB.o [55]
XBeeLib::FH_RxPacketZB::FH_RxPacketZB()
                           0x1'a1dd     0x2  Code  Gb  FH_RxPacketZB.o [55]
XBeeLib::FH_RxPacketZB::process_frame_data(ApiFrame const *)
                           0x1'a1fd    0x56  Code  Gb  FH_RxPacketZB.o [55]
XBeeLib::FH_RxPacketZB::register_receive_cb(void (*)(XBeeLib::RemoteXBeeZB const &, bool, unsigned char const *, unsigned short))
                           0x1'a1f9     0x4  Code  Gb  FH_RxPacketZB.o [55]
XBeeLib::FH_RxPacketZB::~FH_RxPacketZB() [deleting]
                           0x1'a1c9    0x14  Code  Gb  FH_RxPacketZB.o [55]
XBeeLib::RemoteXBee::get_addr64() const
                           0x1'7779     0x6  Code  Gb  RemoteXBee.o [55]
XBeeLib::RemoteXBeeZB::RemoteXBeeZB(unsigned long long)
                           0x1'7789     0x6  Code  Gb  RemoteXBee.o [55]
XBeeLib::RemoteXBeeZB::RemoteXBeeZB(unsigned long long, unsigned short)
                           0x1'778f     0x8  Code  Gb  RemoteXBee.o [55]
XBeeLib::XBee::XBee()      0x1'6ea1    0x52  Code  Gb  XBee.o [55]
XBeeLib::XBee::XBee() [subobject]
                           0x1'6e61     0x2  Code  Gb  XBee.o [55]
XBeeLib::XBee::_framebuf_app
                        0x2000'b72c     0xc  Data  Gb  XBee.o [55]
XBeeLib::XBee::_framebuf_syncr
                        0x2000'b738     0xc  Data  Gb  XBee.o [55]
XBeeLib::XBee::enable_network_encryption(bool)
                           0x1'7973     0xa  Code  Gb  RadioConfig.o [55]
XBeeLib::XBee::get_AI()
                           0x1'76bf    0x20  Code  Gb  XBee.o [55]
XBeeLib::XBee::get_addr64() const
                           0x1'6ffd     0x6  Code  Gb  XBee.o [55]
XBeeLib::XBee::get_network_encryption_state(bool *)
                           0x1'79b5    0x1a  Code  Gb  RadioConfig.o [55]
XBeeLib::XBee::get_param(char const *, unsigned char *, unsigned short *)
                           0x1'9fc7    0x34  Code  Gb  AtCommands.o [55]
XBeeLib::XBee::get_param(char const *, unsigned int *)
                           0x1'9f41    0x4a  Code  Gb  AtCommands.o [55]
XBeeLib::XBee::get_radio_protocol() const
                           0x1'74f5    0xf8  Code  Gb  XBee.o [55]
XBeeLib::XBee::get_this_api_frame(unsigned char, ApiFrame::ApiFrameType, ApiFrame::ApiFrameType)
                           0x1'731f    0x88  Code  Gb  XBee.o [55]
XBeeLib::XBee::hardware_reset()
                           0x1'7003    0x22  Code  Gb  XBee.o [55]
XBeeLib::XBee::init()      0x1'6f0f    0xda  Code  Gb  XBee.o [55]
XBeeLib::XBee::process_rx_frames()
                           0x1'7631    0x68  Code  Gb  XBee.o [55]
XBeeLib::XBee::radio_status_update(AtCmdFrame::ModemStatus)
                           0x1'731d     0x2  Code  Gb  XBee.o [55]
XBeeLib::XBee::register_frame_handler(FrameHandler *)
                           0x1'7475    0x3a  Code  Gb  XBee.o [55]
XBeeLib::XBee::send_api_frame(ApiFrame *)
                           0x1'73df    0x96  Code  Gb  XBee.o [55]
XBeeLib::XBee::send_at_cmd(AtCmdFrame *, unsigned char *, unsigned short *, XBeeLib::RadioLocation, bool)
                           0x1'9e6d    0xcc  Code  Gb  AtCommands.o [55]
XBeeLib::XBee::send_byte_escaping_if(unsigned char)
                           0x1'73ad    0x32  Code  Gb  XBee.o [55]
XBeeLib::XBee::send_data(ApiFrame *)
                           0x1'75ed    0x44  Code  Gb  XBee.o [55]
XBeeLib::XBee::set_network_encryption_key(unsigned char const *, unsigned short)
                           0x1'7985    0x1e  Code  Gb  RadioConfig.o [55]
XBeeLib::XBee::set_param(char const *, unsigned char const *, unsigned short)
                           0x1'9f99     0xc  Code  Gb  AtCommands.o [55]
XBeeLib::XBee::set_param(char const *, unsigned int)
                           0x1'9f8b     0xe  Code  Gb  AtCommands.o [55]
XBeeLib::XBee::software_reset()
                           0x1'793b    0x32  Code  Gb  RadioConfig.o [55]
XBeeLib::XBee::uartReadCb(uint8_t)::bytes_read
                        0x2000'b722     0x2  Data  Lc  XBee.o [55]
XBeeLib::XBee::uartReadCb(uint8_t)::chksum
                        0x2000'b71d     0x1  Data  Lc  XBee.o [55]
XBeeLib::XBee::uartReadCb(uint8_t)::frame
                        0x2000'b724     0x4  Data  Lc  XBee.o [55]
XBeeLib::XBee::uartReadCb(uint8_t)::framebuf
                        0x2000'b728     0x4  Data  Lc  XBee.o [55]
XBeeLib::XBee::uartReadCb(uint8_t)::framelen
                        0x2000'b720     0x2  Data  Lc  XBee.o [55]
XBeeLib::XBee::uartReadCb(uint8_t)::last_byte_escaped
                        0x2000'b71e     0x1  Data  Lc  XBee.o [55]
XBeeLib::XBee::uartReadCb(uint8_t)::rxstate
                        0x2000'b71c     0x1  Data  Lc  XBee.o [55]
XBeeLib::XBee::uartReadCb(uint8_t){4}::frame_cached
                        0x2000'b718     0x4  Data  Lc  XBee.o [55]
XBeeLib::XBee::uartReadCb(unsigned char)
                           0x1'7081   0x29c  Code  Gb  XBee.o [55]
XBeeLib::XBee::unregister_frame_handler(FrameHandler *)
                           0x1'74af    0x46  Code  Gb  XBee.o [55]
XBeeLib::XBee::unregister_modem_status_cb()
                           0x1'7699    0x26  Code  Gb  XBee.o [55]
XBeeLib::XBee::wait_for_module_to_reset(unsigned short volatile *, unsigned short)
                           0x1'7025    0x58  Code  Gb  XBee.o [55]
XBeeLib::XBee::write_config()
                           0x1'792d     0xe  Code  Gb  RadioConfig.o [55]
XBeeLib::XBee::~XBee()     0x1'6ef3    0x1c  Code  Gb  XBee.o [55]
XBeeLib::XBee::~XBee() [subobject]
                           0x1'6e63     0x2  Code  Gb  XBee.o [55]
XBeeLib::XBeeZB::XBeeZB()
                           0x1'697d     0x2  Code  Gb  XBeeZB.o [55]
XBeeLib::XBeeZB::check_for_coordinator_at_start(bool)
                           0x1'6adb     0x6  Code  Gb  XBeeZB.o [55]
XBeeLib::XBeeZB::get_assoc_status()
                           0x1'6c09     0xa  Code  Gb  XBeeZB.o [55]
XBeeLib::XBeeZB::get_configured_panid(unsigned long long *)
                           0x1'6a89    0x34  Code  Gb  XBeeZB.o [55]
XBeeLib::XBeeZB::get_encryption_options(unsigned char *)
                           0x1'6cb5    0x14  Code  Gb  XBeeZB.o [55]
XBeeLib::XBeeZB::get_join_verify_enable_state(bool *)
                           0x1'6cfd    0x24  Code  Gb  XBeeZB.o [55]
XBeeLib::XBeeZB::get_operating_16bitpanid(unsigned short *)
                           0x1'6d61    0x42  Code  Gb  XBeeZB.o [55]
XBeeLib::XBeeZB::get_operating_channel(unsigned char *)
                           0x1'6d21    0x1a  Code  Gb  XBeeZB.o [55]
XBeeLib::XBeeZB::get_operating_panid(unsigned long long *)
                           0x1'6a49    0x40  Code  Gb  XBeeZB.o [55]
XBeeLib::XBeeZB::get_stack_profile(unsigned char *)
                           0x1'6d43    0x1e  Code  Gb  XBeeZB.o [55]
XBeeLib::XBeeZB::init()
                           0x1'6997    0x68  Code  Gb  XBeeZB.o [55]
XBeeLib::XBeeZB::is_joined()
                           0x1'6c13    0x10  Code  Gb  XBeeZB.o [55]
XBeeLib::XBeeZB::radio_status_update(AtCmdFrame::ModemStatus)
                           0x1'6b09    0x24  Code  Gb  XBeeZB.o [55]
XBeeLib::XBeeZB::register_receive_cb(void (*)(XBeeLib::RemoteXBeeZB const &, bool, unsigned char const *, unsigned short))
                           0x1'6c49    0x2c  Code  Gb  XBeeZB.o [55]
XBeeLib::XBeeZB::reset_network_parameters(bool)
                           0x1'6ccd    0x30  Code  Gb  XBeeZB.o [55]
XBeeLib::XBeeZB::send_data(XBeeLib::RemoteXBee const &, unsigned char const *, unsigned short, bool)
                           0x1'6b2d    0x76  Code  Gb  XBeeZB.o [55]
XBeeLib::XBeeZB::send_data_to_coordinator(unsigned char const *, unsigned short, bool)
                           0x1'6baf    0x5a  Code  Gb  XBeeZB.o [55]
XBeeLib::XBeeZB::set_encryption_options(unsigned char)
                           0x1'6aed     0x8  Code  Gb  XBeeZB.o [55]
XBeeLib::XBeeZB::set_panid(unsigned long long)
                           0x1'6a25    0x24  Code  Gb  XBeeZB.o [55]
XBeeLib::XBeeZB::unregister_io_sample_cb()
                           0x1'6c91    0x24  Code  Gb  XBeeZB.o [55]
XBeeLib::XBeeZB::unregister_node_discovery_cb()
                           0x1'6c23    0x26  Code  Gb  XBeeZB.o [55]
XBeeLib::XBeeZB::unregister_receive_cb()
                           0x1'6c75    0x1c  Code  Gb  XBeeZB.o [55]
XBeeLib::XBeeZB::~XBeeZB()
                           0x1'69ff    0x26  Code  Gb  XBeeZB.o [55]
Xbee_Serial_Debug          0x1'b9cd     0x6  Code  Gb  ZigbeeApi_serial_debug.o [55]
ZibeeAPIUartRxChar         0x1'2389     0x8  Code  Gb  ZigbeeAPI.o [55]
ZigNetStatusUpdateTimeinterval
                        0x1fff'0d58     0x4  Data  Lc  ZigbeeAPIMode.o [12]
ZigbeeAPICallbackFunc   0x1fff'0d3c    0x1c  Data  Lc  ZigbeeAPIMode.o [12]
ZigbeeAPIDebugSerialTx  0x2000'b924     0x4  Data  Lc  ZigbeeAPIHAL.o [55]
ZigbeeAPIInit              0x1'2429    0x48  Code  Gb  ZigbeeAPI.o [55]
ZigbeeAPIModeInit            0xaeef    0x52  Code  Gb  ZigbeeAPIMode.o [12]
ZigbeeAPIModeTimer_ms        0xb11f    0x10  Code  Gb  ZigbeeAPIMode.o [12]
ZigbeeAPIPoll              0x1'25d9    0x1a  Code  Gb  ZigbeeAPI.o [55]
ZigbeeAPIRxDataFunc          0xb0b5    0x6a  Code  Lc  ZigbeeAPIMode.o [12]
ZigbeeAPImsTimerHandler
                           0x1'2423     0x4  Code  Gb  ZigbeeAPI.o [55]
ZigbeeApiTxData              0xb191    0x5e  Code  Gb  ZigbeeAPIMode.o [12]
ZigbeeModuleResetOff    0x2000'b920     0x4  Data  Lc  ZigbeeAPIHAL.o [55]
ZigbeeModuleResetOn     0x2000'b91c     0x4  Data  Lc  ZigbeeAPIHAL.o [55]
ZigbeeNetworkJoinedStatus
                        0x1fff'0d38     0x1  Data  Lc  ZigbeeAPIMode.o [12]
ZigbeePoll                   0xaf8b   0x128  Code  Gb  ZigbeeAPIMode.o [12]
ZigbeeResetOff             0x1'28b1     0x2  Code  Gb  ZigbeeUart.o [13]
ZigbeeResetOn              0x1'28ad     0x4  Code  Gb  ZigbeeUart.o [13]
ZigbeeRxDataReceive        0x1'2783    0xaa  Code  Gb  ZigbeeUart.o [13]
ZigbeeRxDataReceive::zigbeeRxMacAddr
                        0x1fff'0da0     0x8  Data  Lc  ZigbeeUart.o [13]
ZigbeeTxData                 0xb145    0x4a  Code  Gb  ZigbeeAPIMode.o [12]
ZigbeeUartInit             0x1'267d    0x7a  Code  Gb  ZigbeeUart.o [13]
ZigbeeUartReceive          0x1'273b    0x48  Code  Gb  ZigbeeUart.o [13]
ZigbeeUartRx                 0xb12f     0x4  Code  Gb  ZigbeeAPIMode.o [12]
ZigbeeUartRxDatatoMain     0x1'7815    0x20  Code  Gb  ZigbeeAPIHAL.o [55]
ZigbeeUartRxIntDisable     0x1'7841     0xc  Code  Gb  ZigbeeAPIHAL.o [55]
ZigbeeUartRxIntEnable      0x1'7835     0xc  Code  Gb  ZigbeeAPIHAL.o [55]
ZigbeeUartTransmit         0x1'26f7    0x44  Code  Gb  ZigbeeUart.o [13]
ZigbeeUartTx                 0xb135     0xe  Code  Lc  ZigbeeAPIMode.o [12]
ZigbeeUartTxDatatoMain     0x1'7809     0xc  Code  Gb  ZigbeeAPIHAL.o [55]
[local to ZigbeeAPI_cpp]::receive_cb(XBeeLib::RemoteXBeeZB const &, bool, unsigned char const *, unsigned short)
                           0x1'2391    0x92  Code  Lc  ZigbeeAPI.o [55]
_LitobSmallNoMb            0x1'14cb    0xd0  Code  Lc  xprintfsmall_nomb.o [56]
_LocaleC_isalpha           0x1'63f3     0xc  Code  Gb  xlocale_c.o [56]
_LocaleC_islower           0x1'63ed     0x4  Code  Gb  xlocale_c.o [56]
_LocaleC_isspace           0x1'6409    0x14  Code  Gb  xlocale_c.o [56]
_LocaleC_isupper           0x1'63f1     0x2  Code  Gb  xlocale_c.o [56]
_LocaleC_tolower           0x1'641d     0xc  Code  Gb  xlocale_c.o [56]
_Locale_lconv           0x1fff'0cb4    0x38  Data  Lc  xlocale_c.o [56]
_PrintfSmallNoMb           0x1'110d   0x3b2  Code  Gb  xprintfsmall_nomb.o [56]
_PutcharSmallNoMb          0x1'159b    0x20  Code  Lc  xprintfsmall_nomb.o [56]
_PutcharsSmallNoMb         0x1'15bb    0x2e  Code  Lc  xprintfsmall_nomb.o [56]
_SNProut                     0x9553    0x1a  Code  Gb  xsnprout.o [56]
__Vectors                       0x0           --   Gb  startup_MK22FA12.o [53]
__Vectors_End                 0x400          Data  Gb  startup_MK22FA12.o [53]
__Vectors_Size {Abs}          0x400           --   Gb  startup_MK22FA12.o [53]
__aeabi_assert             0x1'5b31    0x18  Code  Gb  fsl_assert.o [54]
__aeabi_atexit             0x1'6e55     0xa  Code  Gb  cxxabi.o [57]
__aeabi_cdcmpeq            0x1'94a5          Code  Gb  DblCmpEq.o [58]
__aeabi_cdcmple            0x1'9535          Code  Gb  DblCmpLe.o [58]
__aeabi_cdrcmple           0x1'95a1          Code  Gb  DblCmpGe.o [58]
__aeabi_d2f                0x1'0be5          Code  Gb  DblToFlt.o [58]
__aeabi_d2iz               0x1'9569          Code  Gb  DblToS32.o [58]
__aeabi_d2uiz              0x1'0f45          Code  Gb  DblToU32.o [58]
__aeabi_dadd               0x1'5b49          Code  Gb  DblAddSub.o [58]
__aeabi_ddiv               0x1'2ef9          Code  Gb  DblDiv.o [58]
__aeabi_dmul               0x1'0a39          Code  Gb  DblMul.o [58]
__aeabi_dsub               0x1'5cc5          Code  Gb  DblAddSub.o [58]
__aeabi_f2d                0x1'09f1          Code  Gb  FltToDbl.o [58]
__aeabi_i2d                0x1'09b5          Code  Gb  S32ToDbl.o [58]
__aeabi_ldiv0              0x1'9349          Code  Gb  I64DivZer.o [59]
__aeabi_memclr               0xe79d          Code  Gb  ABImemclr.o [59]
__aeabi_memclr4              0xd911          Code  Gb  ABImemclr4.o [59]
__aeabi_memcpy               0xdbf1          Code  Gb  ABImemcpy.o [59]
__aeabi_memcpy4              0xdc11          Code  Gb  ABImemcpy.o [59]
__aeabi_memcpy8              0xdc11          Code  Gb  ABImemcpy.o [59]
__aeabi_memset             0x1'094d          Code  Gb  ABImemset.o [59]
__aeabi_ui2d               0x1'2edd          Code  Gb  U32ToDbl.o [58]
__aeabi_uldivmod           0x1'4a6d          Code  Gb  I64DivMod.o [59]
__call_ctors               0x1'a25d    0x18  Code  Gb  cppinit.o [56]
__call_dtors               0x1'a2ab     0xc  Code  Gb  cppinit.o [56]
__call_dtors0              0x1'a2b7    0x36  Code  Gb  cppinit.o [56]
__cexit_call_dtors         0x1'ff7f          Code  Gb  cexit.o [59]
__cmain                    0x1'ff59          Code  Gb  cmain.o [59]
__cstart_call_dtors        0x2'0128          Data  Gb  cstart_call_dtors.o [59]
__cxa_atexit               0x1'a275    0x36  Code  Gb  cppinit.o [56]
__data_GetMemChunk         0x1'c501    0x2c  Code  Gb  xgetmemchunk.o [56]
__data_GetMemChunk::start
                        0x2000'bb70     0x4  Data  Lc  xgetmemchunk.o [56]
__dso_handle            0x2000'bb64     0x4  Data  Gb  cppinit.o [56]
__exit                     0x1'c37d          Code  Gb  XXexit.o [59]
__iar_Exp64                0x1'95d5   0x26c  Code  Gb  iar_Exp64.o [58]
__iar_Fail_s               0x1'6729    0x1c  Code  Gb  xfail_s.o [56]
__iar_Memchr               0x1'10b5          Code  Gb  memchr.o [59]
__iar_Memset               0x1'094d          Code  Gb  ABImemset.o [59]
__iar_Memset4_word         0x1'3c3d          Code  Gb  ABImemset48.o [59]
__iar_Memset8_word         0x1'3c3d          Code  Gb  ABImemset48.o [59]
__iar_Memset_word          0x1'0955          Code  Gb  ABImemset.o [59]
__iar_Sto32                  0xe675    0xec  Code  Gb  strto32.o [58]
__iar_Stoflt               0x1'4ecd   0x1b8  Code  Gb  iar_Stoflt.o [56]
__iar_Stolx                  0x7579    0x8c  Code  Gb  iar_Stolx.o [56]
__iar_Stopfx               0x1'4da9   0x122  Code  Gb  iar_Stopfx.o [56]
__iar_Stoullx                0xe375   0x1a4  Code  Gb  iar_Stoullx.o [56]
__iar_Stoulx                 0x93fd   0x13a  Code  Gb  iar_Stoulx.o [56]
__iar_Stoxflt              0x1'5085   0x1d4  Code  Gb  iar_Stoxflt.o [56]
__iar_Stoxflt::digits      0x1'525c    0x18  Data  Lc  iar_Stoxflt.o [56]
__iar_Stoxflt::vals        0x1'5274    0x18  Data  Lc  iar_Stoxflt.o [56]
__iar_Strchr               0x1'6711          Code  Gb  strchr.o [59]
__iar_cstart_call_ctors
                           0x1'ff39    0x20  Code  Gb  cmain_call_ctors.o [59]
__iar_data_init3           0x1'fce1    0x28  Code  Gb  data_init.o [59]
__iar_dlfree               0x1'b497   0x52c  Code  Gb  dlmalloc.o [56]
__iar_dlmalloc             0x1'a581   0xf16  Code  Gb  dlmalloc.o [56]
__iar_frexp                0x1'94d1          Code  Gb  frexp.o [58]
__iar_frexp32              0x1'4c9d          Code  Gb  frexpf.o [58]
__iar_frexpf               0x1'4cb1          Code  Gb  frexpf.o [58]
__iar_frexpl               0x1'94d1          Code  Gb  frexp.o [58]
__iar_globLocale        0x1fff'0c28    0x48  Data  Lc  xlocale_c.o [56]
__iar_global_Locale        0x1'6429     0x4  Code  Gb  xlocale_c.o [56]
__iar_init_vfp             0x1'fedd          Code  Gb  fpinit_M.o [58]
__iar_ldexp32              0x1'4ce5          Code  Gb  ldexpf.o [58]
__iar_ldexp64              0x1'c241          Code  Gb  ldexp.o [58]
__iar_lz77_init3           0x1'd993   0x176  Code  Gb  lz77_init.o [59]
__iar_pow64                0x1'5da9   0x644  Code  Gb  pow64.o [58]
__iar_pow_medium           0x1'5da9   0x644  Code  Gb  pow64.o [58]
__iar_pow_medium64         0x1'5da9   0x644  Code  Gb  pow64.o [58]
__iar_pow_mediuml          0x1'5da9   0x644  Code  Gb  pow64.o [58]
__iar_program_start        0x1'ff8d          Code  Gb  cstartup_M.o [59]
__iar_round64              0x1'9e15          Code  Gb  round.o [58]
__iar_scalbln32            0x1'4ce5          Code  Gb  ldexpf.o [58]
__iar_scalbln64            0x1'c241          Code  Gb  ldexp.o [58]
__iar_scalbn32             0x1'4ce5          Code  Gb  ldexpf.o [58]
__iar_scalbn64             0x1'c241          Code  Gb  ldexp.o [58]
__iar_softfp___iar_frexp64
                           0x1'94c5          Code  Gb  frexp.o [58]
__iar_softfp_frexp         0x1'94c5          Code  Gb  frexp.o [58]
__iar_softfp_frexpl        0x1'94c5          Code  Gb  frexp.o [58]
__iar_tls$$INIT_ARRAY$$Base
                           0x2'0124           --   Gb  - Linker created -
__iar_tls$$INIT_ARRAY$$Limit
                           0x2'0124           --   Gb  - Linker created -
__iar_vfp___iar_round64
                           0x1'9e05          Code  Gb  round.o [58]
__iar_vfp_pow              0x1'09df    0x10  Code  Gb  math_wrappers64.o [58]
__iar_vfp_round            0x1'9e05          Code  Gb  round.o [58]
__iar_vfp_roundl           0x1'9e05          Code  Gb  round.o [58]
__iar_zero_init3           0x1'fa45    0x38  Code  Gb  zero_init3.o [59]
__sti__routine             0x1'2375    0x14  Code  Lc  ZigbeeAPI.o [55]
__sti__routine             0x1'6e65    0x3c  Code  Lc  XBee.o [55]
__vector_table                  0x0          Data  Gb  startup_MK22FA12.o [53]
__vector_table_0x1c            0x1c          Data  Gb  startup_MK22FA12.o [53]
_call_main                 0x1'ff65          Code  Gb  cmain.o [59]
_exit                      0x1'ff7d          Code  Gb  cexit.o [59]
_gm_                    0x2000'af08   0x1d8  Data  Lc  dlmalloc.o [56]
abort                      0x1'9e67     0x6  Code  Gb  abort.o [56]
accelState              0x1fff'0d26     0x1  Data  Lc  BrushControl.o [42]
accelState              0x1fff'0d5e     0x1  Data  Lc  RobotControl.o [41]
adc0ConversionDoneFlag  0x2000'b6c8     0x1  Data  Lc  adc.o [4]
adc1ConversionDoneFlag  0x2000'b6c9     0x1  Data  Lc  adc.o [4]
adcConfigStruct         0x2000'b6c0     0x8  Data  Lc  adc.o [4]
addr64_from_uint8_t(unsigned char const *, bool)
                           0x1'a013    0x30  Code  Gb  Utils.o [55]
allLogActiveSector      0x1fff'0da8     0x1  Data  Lc  EventLoggerFlash.o [19]
allLogActiveSectorStartAdd
                        0x1fff'0dac     0x8  Data  Lc  EventLoggerFlash.o [19]
allLogEventIndex        0x1fff'0daa     0x2  Data  Lc  EventLoggerFlash.o [19]
atoi                         0x953d     0x2  Code  Gb  iar_Stoulx.o [56]
atol                         0x9541     0x2  Code  Gb  iar_Stoulx.o [56]
autoDoneDateSeconds     0x2000'ba9c     0x4  Data  Lc  AutoSchedule.o [44]
autoModePwmParam        0x2000'ba14     0xc  Data  Lc  BrushControl.o [42]
batI2CTimer             0x2000'b654     0x4  Data  Gb  bat_i2c.o [25]
bat_i2c_master_callback
                           0x1'2931    0x22  Code  Gb  bat_i2c.o [25]
batt_charg_curr         0x1fff'0900     0x4  Data  Gb  RobotMain.o [3]
batt_charg_curr_arr     0x1fff'0994     0xc  Data  Gb  RobotMain.o [3]
batt_discharg_curr      0x1fff'0904     0x4  Data  Gb  RobotMain.o [3]
batt_discharg_curr_arr  0x1fff'09a0     0xc  Data  Gb  RobotMain.o [3]
batt_temp               0x1fff'0914     0x4  Data  Gb  RobotMain.o [3]
batteryError            0x2000'b929     0x1  Data  Gb  LTC4015_main.o [25]
battery_volt            0x1fff'08fc     0x4  Data  Gb  RobotMain.o [3]
battery_volt_arr        0x1fff'0988     0xc  Data  Gb  RobotMain.o [3]
bmsUartRx               0x1fff'3d00   0x1fc  Data  Lc  BmsUart.o [7]
bmsUartTx               0x1fff'371c   0x5e4  Data  Lc  BmsUart.o [7]
brushEnabledState       0x1fff'0d28     0x1  Data  Lc  BrushControl.o [42]
brushMotorDeadTime_ms   0x1fff'0dd0     0x4  Data  Gb  BrushMotorControl.o [26]
brushMotorPolarity      0x2000'b863     0x1  Data  Lc  BrushMotorControl_hal.o [26]
brushMotorState         0x1fff'0dc8     0x1  Data  Lc  BrushMotorControl.o [26]
brushMotorTargetState   0x1fff'0dc9     0x1  Data  Lc  BrushMotorControl.o [26]
brushMotorTimeOver      0x1fff'0dcb     0x1  Data  Lc  BrushMotorControl.o [26]
brushMotor_timecount    0x1fff'0dcc     0x4  Data  Lc  BrushMotorControl.o [26]
brushState              0x1fff'0d24     0x1  Data  Lc  BrushControl.o [42]
bw                      0x1fff'0880     0x4  Data  Gb  SDcardoperation.o [49]
callFlashCommonBitOperation
                        0x2000'bacc     0x4  Data  Lc  fsl_flash.o [2]
callFlashRunCommand     0x2000'bac8     0x4  Data  Lc  fsl_flash.o [2]
charge_cont_temp        0x1fff'0910     0x4  Data  Gb  RobotMain.o [3]
check_fs                     0xff6b    0x4c  Code  Lc  ff.o [49]
chip                    0x2000'b92c     0x4  Data  Gb  LTC4015_main.o [25]
circumference           0x2000'bb3c     0x4  Data  Gb  eepromStore.o [17]
cleanerErrorCode        0x2000'b9ec     0x4  Data  Gb  ResponseAPIProcess.o [5]
cleanerFSMState         0x1fff'0a80     0x1  Data  Gb  RobotOperation.o [43]
cleanerMACinfo          0x2000'bb10     0x8  Data  Gb  RobotOperation.o [43]
cleanerStatus           0x2000'b9e9     0x1  Data  Gb  ResponseAPIProcess.o [5]
cleaner_in_comm         0x2000'b9ea     0x2  Data  Gb  ResponseAPIProcess.o [5]
cleaner_log_Data             0xeca5   0x126  Code  Gb  SDcardoperation.o [49]
cleaner_log_main             0xeefb    0x20  Code  Gb  SDcardoperation.o [49]
cleaner_logtime         0x2000'bb81     0x1  Data  Gb  SDcardoperation.o [49]
cleaner_op1             0x1fff'0a92     0x1  Data  Gb  RobotOperation.o [43]
clust2sect                   0xf729    0x1a  Code  Gb  ff.o [49]
completionFlag          0x2000'b6ec     0x1  Data  Gb  i2c_init.o [20]
completionFlag_b        0x2000'b650     0x1  Data  Gb  bat_i2c.o [25]
configUartRx            0x1fff'3520   0x1fc  Data  Lc  ConfigUart.o [8]
configUartTx            0x1fff'0e08  0x2718  Data  Lc  ConfigUart.o [8]
controller_status       0x1fff'08ec     0x1  Data  Gb  RobotMain.o [3]
conversionChannelGroup  0x2000'b6ca     0x2  Data  Lc  adc.o [4]
countRange              0x2000'bb08     0x8  Data  Lc  RobotControl.o [41]
create_chain                 0xf967    0xa0  Code  Lc  ff.o [49]
curLastOpStatus         0x2000'b89c    0x1c  Data  Lc  RobotControl.o [41]
curManualState          0x1fff'0a7b     0x1  Data  Lc  RobotOperation.o [43]
currTime                0x2000'b65c     0x4  Data  Gb  bat_i2c.o [25]
currentModeBrushParam   0x1fff'0d14    0x10  Data  Lc  BrushControl.o [42]
currentModeBrushSetParam
                        0x2000'b998    0x10  Data  Lc  BrushControl.o [42]
currentModeRobotParam   0x2000'b7d8    0x24  Data  Lc  RobotControl.o [41]
currentModeRobotSetParam
                        0x2000'b7fc    0x24  Data  Lc  RobotControl.o [41]
currentPwm1Duty         0x1fff'0d6c     0x4  Data  Lc  RobotControl.o [41]
currentPwm2Duty         0x1fff'0d70     0x4  Data  Lc  RobotControl.o [41]
currentPwmDuty          0x1fff'0d30     0x4  Data  Lc  BrushControl.o [42]
currenttime             0x2000'ad0c     0x4  Data  Gb  RobotMain.o [3]
cycleModeAutoPwmParam   0x2000'b864    0x1c  Data  Lc  CycleMode.o [45]
cycleModeManualPwmParam
                        0x2000'b840    0x1c  Data  Lc  CycleMode.o [45]
cycleModeState          0x2000'b85c     0x1  Data  Lc  CycleMode.o [45]
cyclelog                0x1fff'0a14    0x64  Data  Gb  APIProcessing.o [5]
data                    0x2000'bb7f     0x1  Data  Gb  rfid.o [38]
dataCount               0x1fff'0628     0x4  Data  Gb  SDcardoperation.o [49]
data_read_buffer        0x2000'0000  0x2714  Data  Gb  SDcardoperation.o [49]
data_read_buffer2       0x2000'2714  0x2714  Data  Gb  SDcardoperation.o [49]
dateTimeUpdatedFlag     0x1fff'0e02     0x1  Data  Lc  Rtc.o [39]
deadTimeState           0x1fff'0dca     0x1  Data  Lc  BrushMotorControl.o [26]
deadTimeState           0x1fff'0dd6     0x1  Data  Lc  Motor1Control.o [28]
deadTimeState           0x1fff'0de2     0x1  Data  Lc  Motor2Control.o [30]
debugUartRx             0x1fff'44e0   0x1fc  Data  Lc  DebugUart.o [11]
debugUartTx             0x1fff'3efc   0x5e4  Data  Lc  DebugUart.o [11]
decelState              0x1fff'0d25     0x1  Data  Lc  BrushControl.o [42]
decelState              0x1fff'0d5d     0x1  Data  Lc  RobotControl.o [41]
decimal                 0x2000'bb00     0x8  Data  Gb  rfid.o [38]
delayMillisecondTime    0x2000'baa8     0x8  Data  Lc  delay.o [15]
destAdrss               0x1fff'0ad4    0x10  Data  Gb  usr_flash.o [17]
difference              0x2000'b658     0x4  Data  Gb  bat_i2c.o [25]
digits                     0x1'f5f8    0x28  Data  Lc  iar_Stoulx.o [56]
digits                     0x1'f648    0x28  Data  Lc  iar_Stoullx.o [56]
dir_next                     0xfa95    0xf2  Code  Lc  ff.o [49]
dir_read                     0xfb99    0x5a  Code  Lc  ff.o [49]
dir_register                 0xfbf3    0x70  Code  Lc  ff.o [49]
dir_remove                   0xfc63    0x32  Code  Lc  ff.o [49]
dir_sdi                      0xfa07    0x8e  Code  Lc  ff.o [49]
disk_initialize            0x1'560b   0x1a6  Code  Gb  diskio.o [49]
disk_ioctl                 0x1'593d   0x1ec  Code  Gb  diskio.o [49]
disk_read                  0x1'57bf    0xb0  Code  Gb  diskio.o [49]
disk_status                0x1'57b1     0xe  Code  Gb  diskio.o [49]
disk_write                 0x1'586f    0xcc  Code  Gb  diskio.o [49]
distance                0x1fff'09ac     0x4  Data  Gb  APIProcessing.o [5]
edgeSense1Flag          0x2000'bab0     0x1  Data  Lc  EdgeSense1.o [18]
edgeSense1TimeOver      0x2000'bab1     0x1  Data  Lc  EdgeSense1.o [18]
edgeSense1_timecount    0x2000'bab4     0x4  Data  Lc  EdgeSense1.o [18]
edgeSense2Flag          0x2000'bab8     0x1  Data  Lc  EdgeSense2.o [18]
edgeSense2TimeOver      0x2000'bab9     0x1  Data  Lc  EdgeSense2.o [18]
edgeSense2_timecount    0x2000'babc     0x4  Data  Lc  EdgeSense2.o [18]
edgeSensorEnabledState  0x1fff'0e05     0x1  Data  Lc  EdgeSenseCommon.o [18]
edgesensor1IntState     0x2000'bab2     0x1  Data  Lc  EdgeSense1.o [18]
edgesensor2IntState     0x2000'baba     0x1  Data  Lc  EdgeSense2.o [18]
emergencyModePwmParam   0x2000'b8f0    0x1c  Data  Lc  RobotOperation.o [43]
enableQuadDecode        0x2000'bb7d     0x1  Data  Gb  QuadDecoder.o [48]
encoderTolerance        0x1fff'0aa8     0x4  Data  Gb  RobotOperation.o [43]
errorState              0x2000'b4bc     0x1  Data  Lc  FaultProcess.o [46]
errorState              0x1fff'0dee     0x1  Data  Gb  Led2.o [23]
exit                       0x1'ff77     0x4  Code  Gb  exit.o [56]
f_mount                    0x1'01db    0x68  Code  Gb  ff.o [49]
f_open                     0x1'024d   0x118  Code  Gb  ff.o [49]
f_read                     0x1'0365   0x158  Code  Gb  ff.o [49]
f_sync                     0x1'06e5    0x5a  Code  Gb  ff.o [49]
f_unlink                   0x1'0749    0x94  Code  Gb  ff.o [49]
f_write                    0x1'04bd   0x228  Code  Gb  ff.o [49]
failAddr                0x1fff'0b28     0x4  Data  Gb  usr_flash.o [17]
failDat                 0x1fff'0b2c     0x4  Data  Gb  usr_flash.o [17]
faultTimeData           0x2000'b558    0x58  Data  Lc  FaultProcess.o [46]
find_volume                  0xffb7   0x1f4  Code  Lc  ff.o [49]
flash_check_execute_in_ram_function_info
                           0x1'bed1    0x18  Code  Lc  fsl_flash.o [2]
flash_check_range          0x1'bee9    0x2c  Code  Lc  fsl_flash.o [2]
flash_command_sequence     0x1'be45    0x34  Code  Lc  fsl_flash.o [2]
flash_get_matched_operation_info
                           0x1'bf15    0x44  Code  Lc  fsl_flash.o [2]
flash_init                 0x1'8d01   0x11e  Code  Gb  usr_flash.o [17]
fmc_flash_cache_clear      0x1'be79    0x14  Code  Gb  fsl_flash.o [2]
fmc_flash_prefetch_speculation_clear
                           0x1'be8d    0x14  Code  Gb  fsl_flash.o [2]
follow_path                  0xfc95   0x27a  Code  Lc  ff.o [49]
free                       0x1'c56f     0x4  Code  Gb  heaptramp0.o [56]
frexpf                     0x1'4c9d          Code  Gb  frexpf.o [58]
ftmInfo                 0x1fff'0cf4    0x1c  Data  Lc  Pwm1.o [29]
ftmParam                0x1fff'0cec     0x8  Data  Lc  Pwm1.o [29]
ftoa                         0x72ad    0xb0  Code  Gb  NumStrConversion.o [32]
g_dspiHandle            0x2000'ba20     0xc  Data  Lc  fsl_dspi.o [2]
g_m_handle_b            0x2000'b660    0x28  Data  Gb  bat_i2c.o [25]
g_m_handle_t            0x2000'b6f0    0x28  Data  Gb  i2c_init.o [20]
g_xtal0Freq             0x1fff'0dc0     0x4  Data  Gb  fsl_clock.o [2]
g_xtal32Freq            0x1fff'0dc4     0x4  Data  Gb  fsl_clock.o [2]
generated_energy        0x1fff'0918     0x4  Data  Gb  RobotMain.o [3]
getCurrentCleanerMac         0x76ff     0x8  Code  Gb  RobotOperation.o [43]
getTime_str             0x2000'7538    0x28  Data  Gb  APIProcessing.o [5]
get_fat                      0xf743    0xcc  Code  Gb  ff.o [49]
get_ldnumber                 0xff21    0x4a  Code  Lc  ff.o [49]
get_mask                   0x1'2bd9    0x24  Code  Lc  LTC4015.o [25]
gotoCount               0x1fff'0aa0     0x4  Data  Lc  RobotOperation.o [43]
heartbeatConfigValues   0x2000'baa0     0x8  Data  Lc  CommCommon.o [6]
hextodec                   0x1'c865    0x16  Code  Gb  RobotMain.o [3]
i2c_master_callback        0x1'3acd    0x22  Code  Gb  i2c_init.o [20]
i2c_release_bus_delay      0x1'3aef     0xa  Code  Gb  i2c_init.o [20]
i2c_release_bus_delay_b
                           0x1'2953     0xa  Code  Gb  bat_i2c.o [25]
iloadTimeOver           0x2000'b9a8     0x1  Data  Lc  Mot1CurrentFault.o [47]
iloadTimeOver           0x2000'b9b8     0x1  Data  Lc  Mot2CurrentFault.o [47]
iloadTimeOver           0x2000'b9c8     0x1  Data  Lc  Mot3CurrentFault.o [47]
iloadmax_timecount      0x2000'b9ac     0x4  Data  Lc  Mot1CurrentFault.o [47]
iloadmax_timecount      0x2000'b9bc     0x4  Data  Lc  Mot2CurrentFault.o [47]
iloadmax_timecount      0x2000'b9cc     0x4  Data  Lc  Mot3CurrentFault.o [47]
init_mparams               0x1'a515    0x2c  Code  Lc  dlmalloc.o [56]
init_top                   0x1'a541    0x34  Code  Lc  dlmalloc.o [56]
intToStr                     0x7249    0x3c  Code  Gb  NumStrConversion.o [32]
isAckReceived           0x2000'bb7e     0x1  Data  Gb  ResponseAPIProcess.o [5]
isCleanerDone           0x2000'b9e8     0x1  Data  Gb  ResponseAPIProcess.o [5]
isJogDone               0x1fff'0a84     0x1  Data  Lc  RobotOperation.o [43]
isZigbeeAPINetworkJoined
                           0x1'2557     0x6  Code  Gb  ZigbeeAPI.o [55]
isalpha                    0x1'934b    0x14  Code  Gb  isalpha.o [56]
isspace                    0x1'0c4d    0x14  Code  Gb  isspace.o [56]
jogFSMState             0x1fff'0a82     0x1  Data  Gb  RobotOperation.o [43]
jogModePwmParam         0x2000'b744    0x1c  Data  Lc  RobotOperation.o [43]
jsmn_init                  0x1'9313     0xe  Code  Gb  fun_json.o [10]
jsmn_parse                 0x1'8fbd   0x350  Code  Gb  fun_json.o [10]
jsonCommandParams       0x1fff'0000   0x620  Data  Gb  APIProcessing.o [5]
kPFlashDensities           0x1'bf80    0x20  Data  Gb  fsl_flash.o [2]
lastReadRfidData        0x1fff'0bd8     0xc  Data  Gb  rfid.o [38]
lastReadRfidData1       0x1fff'0bf8     0xc  Data  Gb  rfid.o [38]
ld_clust                     0xfb87    0x12  Code  Lc  ff.o [49]
ldexp                      0x1'c241          Code  Gb  ldexp.o [58]
ldexpf                     0x1'4ce5          Code  Gb  ldexpf.o [58]
ldexpl                     0x1'c241          Code  Gb  ldexp.o [58]
ledLongOffTime          0x1fff'0b80     0x4  Data  Lc  Led1.o [22]
ledLongOffTime          0x1fff'0cb0     0x4  Data  Lc  Led2.o [23]
ledLongOffTime          0x1fff'0bd4     0x4  Data  Lc  Led3.o [24]
ledOffTime              0x1fff'0b7c     0x4  Data  Lc  Led1.o [22]
ledOffTime              0x1fff'0cac     0x4  Data  Lc  Led2.o [23]
ledOffTime              0x1fff'0bd0     0x4  Data  Lc  Led3.o [24]
ledOnTime               0x1fff'0b78     0x4  Data  Lc  Led1.o [22]
ledOnTime               0x1fff'0ca8     0x4  Data  Lc  Led2.o [23]
ledOnTime               0x1fff'0bcc     0x4  Data  Lc  Led3.o [24]
ledOperateParams        0x1fff'0b30    0x40  Data  Lc  Led1.o [22]
ledOperateParams        0x1fff'0c70    0x30  Data  Lc  Led2.o [23]
ledOperateParams        0x1fff'0b84    0x40  Data  Lc  Led3.o [24]
ledTestMode             0x2000'bad9     0x1  Data  Lc  Led1.o [22]
ledTestMode             0x1fff'0ded     0x1  Data  Lc  Led2.o [23]
ledTestMode             0x2000'bae1     0x1  Data  Lc  Led3.o [24]
ledTimeOver             0x2000'bad8     0x1  Data  Lc  Led1.o [22]
ledTimeOver             0x1fff'0dec     0x1  Data  Lc  Led2.o [23]
ledTimeOver             0x2000'bae0     0x1  Data  Lc  Led3.o [24]
led_timecount           0x2000'badc     0x4  Data  Lc  Led1.o [22]
led_timecount           0x1fff'0df0     0x4  Data  Lc  Led2.o [23]
led_timecount           0x2000'bae4     0x4  Data  Lc  Led3.o [24]
lnbias                     0x1'cdc8   0x420  Data  Lc  pow64.o [58]
localeconv                 0x1'642d     0x4  Code  Gb  xlocale_c.o [56]
main                       0x1'c575   0x212  Code  Gb  RobotMain.o [3]
manualModePwmParam      0x2000'b8d4    0x1c  Data  Lc  RobotOperation.o [43]
manufacturerDeviceInfo  0x2000'b7b4    0x24  Data  Lc  DefaultValues.o [16]
maxBoardTemperature     0x2000'bb20     0x8  Data  Lc  temp_sensors.o [52]
maxContinueLimits       0x2000'baf8     0x8  Data  Lc  MotCurrentFaultCommon.o [47]
maxCycleFrequencyLimits
                        0x2000'bb44     0x4  Data  Lc  MotCurrentFaultCommon.o [47]
maxIloadConfigValues    0x2000'b9d8    0x10  Data  Lc  MotCurrentFaultCommon.o [47]
maxIloadFreqTimeOver    0x2000'b9aa     0x1  Data  Lc  Mot1CurrentFault.o [47]
maxIloadFreqTimeOver    0x2000'b9ba     0x1  Data  Lc  Mot2CurrentFault.o [47]
maxIloadFreqTimeOver    0x2000'b9ca     0x1  Data  Lc  Mot3CurrentFault.o [47]
maxIloadFreq_timecount  0x2000'b9b4     0x4  Data  Lc  Mot1CurrentFault.o [47]
maxIloadFreq_timecount  0x2000'b9c4     0x4  Data  Lc  Mot2CurrentFault.o [47]
maxIloadFreq_timecount  0x2000'b9d4     0x4  Data  Lc  Mot3CurrentFault.o [47]
maxIntervalLimits       0x2000'b688    0x38  Data  Lc  MotCurrentFaultCommon.o [47]
maxMotorCurrentLimits   0x2000'ba38     0xc  Data  Lc  MotCurrentFaultCommon.o [47]
maxNoofrowsLimits       0x2000'b820    0x20  Data  Lc  MotCurrentFaultCommon.o [47]
maxReturnLimits         0x2000'bb48     0x4  Data  Lc  MotCurrentFaultCommon.o [47]
maxWheelDiaLimits       0x2000'baf0     0x8  Data  Lc  MotCurrentFaultCommon.o [47]
maxrunrfidLimits        0x2000'bb4c     0x4  Data  Lc  MotCurrentFaultCommon.o [47]
mcgConfig_BOARD_BootClockRUN
                           0x1'cc5c     0xc  Data  Gb  clock_config.o [1]
mem_cpy                      0xf619    0x24  Code  Lc  ff.o [49]
memchr                     0x1'10b5          Code  Gb  memchr.o [59]
mot1OverCurrentFault    0x2000'b9ab     0x1  Data  Lc  Mot1CurrentFault.o [47]
mot2OverCurrentFault    0x2000'b9bb     0x1  Data  Lc  Mot2CurrentFault.o [47]
mot3OverCurrentFault    0x2000'b9cb     0x1  Data  Lc  Mot3CurrentFault.o [47]
motor1DeadTime_ms       0x1fff'0ddc     0x4  Data  Gb  Motor1Control.o [28]
motor1Polarity          0x2000'bb79     0x1  Data  Lc  Motor1Control_hal.o [28]
motor1State             0x1fff'0dd4     0x1  Data  Lc  Motor1Control.o [28]
motor1TargetState       0x1fff'0dd5     0x1  Data  Lc  Motor1Control.o [28]
motor1TimeOver          0x1fff'0dd7     0x1  Data  Lc  Motor1Control.o [28]
motor1_timecount        0x1fff'0dd8     0x4  Data  Lc  Motor1Control.o [28]
motor2DeadTime_ms       0x1fff'0de8     0x4  Data  Gb  Motor2Control.o [30]
motor2Polarity          0x2000'bb7a     0x1  Data  Lc  Motor2Control_hal.o [30]
motor2State             0x1fff'0de0     0x1  Data  Lc  Motor2Control.o [30]
motor2TargetState       0x1fff'0de1     0x1  Data  Lc  Motor2Control.o [30]
motor2TimeOver          0x1fff'0de3     0x1  Data  Lc  Motor2Control.o [30]
motor2_timecount        0x1fff'0de4     0x4  Data  Lc  Motor2Control.o [30]
motorFaultData          0x2000'b4c0     0x4  Data  Lc  FaultProcess.o [46]
move_window                  0xf68b    0x34  Code  Lc  ff.o [49]
mparams                 0x2000'b958    0x18  Data  Lc  dlmalloc.o [56]
mppt_bms_calculation       0x1'c87d   0x2b6  Code  Gb  RobotMain.o [3]
mppt_receieve_buffer    0x1fff'091c    0x48  Data  Gb  RobotMain.o [3]
mppt_received_data      0x1fff'0888    0x64  Data  Gb  RobotMain.o [3]
mpptflag                0x2000'bb34     0x4  Data  Gb  ConfigUart.o [8]
msTimeCount             0x2000'bae8     0x8  Data  Lc  LPTimer.o [33]
msTimeCount             0x2000'bb5c     0x4  Data  Lc  Timer.o [55]
msdelay                    0x1'2c75    0x26  Code  Gb  delay.o [15]
nakFlag                 0x2000'b6ed     0x1  Data  Gb  i2c_init.o [20]
nakFlag_b               0x2000'b651     0x1  Data  Gb  bat_i2c.o [25]
ndigs                      0x1'f5d0    0x28  Data  Lc  iar_Stoulx.o [56]
ndigs                      0x1'f620    0x28  Data  Lc  iar_Stoullx.o [56]
newrowflag              0x1fff'0a85     0x1  Data  Gb  RobotOperation.o [43]
nextTargetDirection     0x1fff'0d27     0x1  Data  Lc  BrushControl.o [42]
nextTargetDirection     0x1fff'0d5f     0x1  Data  Lc  RobotControl.o [41]
next_abi_dtor_rec       0x2000'bb60     0x4  Data  Lc  cppinit.o [56]
noOfSetBlink            0x1fff'0b70     0x1  Data  Lc  Led1.o [22]
noOfSetBlink            0x1fff'0ca0     0x1  Data  Lc  Led2.o [23]
noOfSetBlink            0x1fff'0bc4     0x1  Data  Lc  Led3.o [24]
normalModePwmParam      0x2000'ba08     0xc  Data  Lc  BrushControl.o [42]
operationMode           0x1fff'0a78     0x1  Data  Lc  RobotOperation.o [43]
operator delete (void *)
                           0x1'c565     0xa  Code  Gb  delop_0.o [57]
operator delete (void *, unsigned int)
                           0x1'c4f9     0x4  Code  Gb  delop4_0.o [57]
operator delete[] (void *)
                           0x1'c4f1     0x4  Code  Gb  delaop_0.o [57]
operator new (unsigned int)
                           0x1'78d9    0x24  Code  Gb  newop_0.o [57]
operator new[] (unsigned int)
                           0x1'c4f5     0x4  Code  Gb  newaop_0.o [57]
oscConfig_BOARD_BootClockRUN
                           0x1'cc70     0x8  Data  Gb  clock_config.o [1]
pauseDelayTimeOver      0x1fff'0a7a     0x1  Data  Lc  RobotOperation.o [43]
pauseDelay_timecount    0x1fff'0aa4     0x4  Data  Lc  RobotOperation.o [43]
pauseState              0x1fff'0a7c     0x1  Data  Lc  RobotOperation.o [43]
pflashBlockBase         0x1fff'0ae8     0x4  Data  Gb  usr_flash.o [17]
pflashSectorSize        0x1fff'0af0     0x4  Data  Gb  usr_flash.o [17]
pflashTotalSize         0x1fff'0aec     0x4  Data  Gb  usr_flash.o [17]
pow                        0x1'5da9   0x644  Code  Gb  pow64.o [58]
powl                       0x1'5da9   0x644  Code  Gb  pow64.o [58]
pows                         0xe784    0x18  Data  Lc  strto32.o [58]
presentJsonCommandParams
                        0x2000'ba8c     0x4  Data  Lc  APIProcessing.o [5]
presentResponseCommandParams
                        0x1fff'0d8c     0x4  Data  Lc  ResponseAPIProcess.o [5]
prevCycleModeState      0x1fff'0a87     0x1  Data  Gb  RobotOperation.o [43]
prevPauseState          0x1fff'0a98     0x1  Data  Gb  RobotOperation.o [43]
prevRobotCommand        0x1fff'0a86     0x1  Data  Gb  RobotOperation.o [43]
prevRotateSense1Count   0x1fff'0abc     0x4  Data  Gb  RobotOperation.o [43]
prevRotateSense2Count   0x1fff'0ac0     0x4  Data  Gb  RobotOperation.o [43]
prevSOCPercent          0x2000'b934     0x4  Data  Lc  LTC4015_main.o [25]
prevTrackChangerState   0x1fff'0a8e     0x1  Data  Gb  RobotOperation.o [43]
prev_robotState         0x1fff'0a8d     0x1  Data  Gb  RobotOperation.o [43]
prev_track_error        0x1fff'0a8f     0x1  Data  Gb  RobotOperation.o [43]
prev_track_error2       0x1fff'0a90     0x1  Data  Gb  RobotOperation.o [43]
prev_track_state        0x1fff'0a91     0x1  Data  Gb  RobotOperation.o [43]
proximityCount          0x2000'ba48     0x4  Data  Lc  proximity.o [36]
proximityTimeOver       0x2000'ba44     0x1  Data  Lc  proximity.o [36]
proximity_timecount     0x2000'ba4c     0x4  Data  Lc  proximity.o [36]
pulseFrequency          0x1fff'0d10     0x4  Data  Lc  Pwm1.o [29]
put_fat                      0xf80f    0xfa  Code  Gb  ff.o [49]
pv_curr                 0x1fff'08f4     0x4  Data  Gb  RobotMain.o [3]
pv_curr_arr             0x1fff'0970     0xc  Data  Gb  RobotMain.o [3]
pv_power                0x1fff'08f8     0x4  Data  Gb  RobotMain.o [3]
pv_power_arr            0x1fff'097c     0xc  Data  Gb  RobotMain.o [3]
pv_vol                  0x1fff'08f0     0x4  Data  Gb  RobotMain.o [3]
pv_vol_arr              0x1fff'0964     0xc  Data  Gb  RobotMain.o [3]
pv_work_status          0x1fff'0908     0x4  Data  Gb  RobotMain.o [3]
pwm1Ch1DutyCycle        0x2000'bb76     0x1  Data  Lc  BrushPwm.o [27]
pwm1Ch1DutyCycle        0x1fff'0e06     0x1  Data  Lc  Pwm1.o [29]
pwm1Ch2DutyCycle        0x2000'bb77     0x1  Data  Lc  BrushPwm.o [27]
pwm1ChangeValue         0x1fff'0d64     0x4  Data  Lc  RobotControl.o [41]
pwm2Ch1DutyCycle        0x2000'bb7b     0x1  Data  Lc  Pwm2.o [31]
pwm2Ch2DutyCycle        0x2000'bb7c     0x1  Data  Lc  Pwm2.o [31]
pwm2ChangeValue         0x1fff'0d68     0x4  Data  Lc  RobotControl.o [41]
pwmChangeValue          0x1fff'0d2c     0x4  Data  Lc  BrushControl.o [42]
pwm_ChangeTimeCount     0x1fff'0d34     0x4  Data  Lc  BrushControl.o [42]
pwm_ChangeTimeCount     0x1fff'0d74     0x4  Data  Lc  RobotControl.o [41]
pxFile                  0x1fff'0884     0x4  Data  Gb  SDcardoperation.o [49]
quadDecodeCount         0x2000'ba50     0x4  Data  Lc  QuadDecoder.o [48]
quadDecodeNegative      0x2000'ba58     0x4  Data  Lc  QuadDecoder.o [48]
quadDecodePositive      0x2000'ba54     0x4  Data  Lc  QuadDecoder.o [48]
quadDecodeTime          0x2000'bb50     0x4  Data  Lc  QuadDecoder.o [48]
rcvr_datablock             0x1'54d5    0x4a  Code  Lc  diskio.o [49]
read_rfid               0x1fff'0a8a     0x1  Data  Gb  RobotOperation.o [43]
read_rfid_Fail          0x1fff'0a8b     0x1  Data  Gb  RobotOperation.o [43]
receivedMACAddr         0x2000'ba90     0x8  Data  Gb  APIProcessing.o [5]
relayOpState            0x1fff'0df4     0x1  Data  Lc  Relay.o [40]
relayStatus             0x1fff'0df5     0x1  Data  Lc  Relay.o [40]
relayTargetStatus       0x1fff'0df6     0x1  Data  Lc  Relay.o [40]
relayTimeOver           0x1fff'0df7     0x1  Data  Lc  Relay.o [40]
relay_timecount         0x1fff'0df8     0x4  Data  Lc  Relay.o [40]
remove_chain                 0xf909    0x5e  Code  Lc  ff.o [49]
reportState             0x1fff'0a81     0x1  Data  Gb  RobotOperation.o [43]
responseCommandParams   0x1fff'0d7c    0x10  Data  Gb  ResponseAPIProcess.o [5]
rfidDataReceived        0x1fff'0be4     0x1  Data  Gb  rfid.o [38]
rfidTime                0x1fff'0c10     0x4  Data  Gb  rfid.o [38]
rfidTimer_ms            0x1fff'0c14     0x4  Data  Gb  rfid.o [38]
rfidUartReceive         0x1fff'0be8    0x10  Data  Gb  rfid.o [38]
rfid_sense_TimeOver     0x1fff'0a89     0x1  Data  Lc  RobotOperation.o [43]
rfid_sense_timecount    0x1fff'0ac4     0x4  Data  Lc  RobotOperation.o [43]
rmemcpy(unsigned char *, unsigned char const *, unsigned short)
                           0x1'9ffb    0x18  Code  Gb  Utils.o [55]
robotCommand            0x1fff'0a79     0x1  Data  Lc  RobotOperation.o [43]
robotState              0x1fff'0d5c     0x1  Data  Lc  RobotControl.o [41]
rotateCount             0x2000'ba60     0x4  Data  Lc  RotateSense1.o [48]
rotateCount             0x2000'ba6c     0x4  Data  Lc  RotateSense2.o [48]
rotateSense1TimeOver    0x2000'ba5c     0x1  Data  Lc  RotateSense1.o [48]
rotateSense1_timecount  0x2000'ba64     0x4  Data  Lc  RotateSense1.o [48]
rotateSense2TimeOver    0x2000'ba68     0x1  Data  Lc  RotateSense2.o [48]
rotateSense2_timecount  0x2000'ba70     0x4  Data  Lc  RotateSense2.o [48]
round                      0x1'9e15          Code  Gb  round.o [58]
roundl                     0x1'9e15          Code  Gb  round.o [58]
rowLengthData           0x2000'a368   0x5a0  Data  Gb  RobotOperation.o [43]
row_detected            0x2000'ba46     0x2  Data  Gb  proximity.o [36]
rowdaycount             0x1fff'0ab8     0x4  Data  Gb  RobotOperation.o [43]
rowsActuallyCleaned     0x1fff'0ab4     0x4  Data  Gb  RobotOperation.o [43]
rtcSecondsUpdatedFlag   0x2000'bb80     0x1  Data  Lc  Rtc.o [39]
rxDataBuffer            0x2000'ad14   0x1f4  Data  Gb  RobotMain.o [3]
rxIndex                 0x1fff'0c04     0x2  Data  Gb  rfid.o [38]
s_debugConsoleIO        0x2000'bad0     0x8  Data  Lc  fsl_io.o [54]
s_dspiMasterIsr         0x2000'ba30     0x4  Data  Lc  fsl_dspi.o [2]
s_dspiSlaveIsr          0x2000'ba34     0x4  Data  Lc  fsl_dspi.o [2]
s_dummyData             0x2000'ba2c     0x4  Data  Gb  fsl_dspi.o [2]
s_fastIrcFreq           0x1fff'0dbc     0x4  Data  Lc  fsl_clock.o [2]
s_flashCommonBitOperation
                        0x2000'b47c    0x40  Data  Lc  fsl_flash.o [2]
s_flashCommonBitOperationFunctionCode
                           0x1'bf64    0x1c  Data  Lc  fsl_flash.o [2]
s_flashDriver           0x1fff'0af4    0x34  Data  Lc  usr_flash.o [17]
s_flashExecuteInRamFunctionInfo
                        0x2000'b430     0xc  Data  Lc  fsl_flash.o [2]
s_flashRunCommand       0x2000'b43c    0x40  Data  Lc  fsl_flash.o [2]
s_flashRunCommandFunctionCode
                           0x1'bf58     0xc  Data  Lc  fsl_flash.o [2]
s_ftmClocks                0x1'8738    0x10  Data  Lc  fsl_ftm.o [2]
s_i2cClocks                0x1'7f80     0xc  Data  Lc  fsl_i2c.o [2]
s_i2cDividerTable          0x1'db08    0x80  Data  Lc  fsl_i2c.o [2]
s_i2cHandle             0x2000'b970     0xc  Data  Lc  fsl_i2c.o [2]
s_i2cIrqs                  0x1'800c     0x4  Data  Lc  fsl_i2c.o [2]
s_i2cMasterIsr          0x2000'b97c     0x4  Data  Lc  fsl_i2c.o [2]
s_i2cSlaveIsr           0x2000'b980     0x4  Data  Lc  fsl_i2c.o [2]
s_lptmrClocks              0x1'6510     0x4  Data  Lc  fsl_lptmr.o [2]
s_portBases                0x1'2e38    0x14  Data  Lc  fsl_gpio.o [2]
s_slowIrcFreq           0x1fff'0db8     0x4  Data  Lc  fsl_clock.o [2]
s_uartClock                0x1'431c    0x18  Data  Lc  fsl_uart.o [2]
s_uartHandle            0x2000'b880    0x18  Data  Lc  fsl_uart.o [2]
s_uartIsr               0x2000'b898     0x4  Data  Lc  fsl_uart.o [2]
scalbln                    0x1'c241          Code  Gb  ldexp.o [58]
scalblnf                   0x1'4ce5          Code  Gb  ldexpf.o [58]
scalblnl                   0x1'c241          Code  Gb  ldexp.o [58]
scalbn                     0x1'c241          Code  Gb  ldexp.o [58]
scalbnf                    0x1'4ce5          Code  Gb  ldexpf.o [58]
scalbnl                    0x1'c241          Code  Gb  ldexp.o [58]
scheduleTime            0x2000'ba98     0x2  Data  Lc  AutoSchedule.o [44]
schedule_log            0x1fff'46dc    0x64  Data  Gb  APIProcessing.o [5]
sd_continue_read        0x1fff'0621     0x1  Data  Gb  SDcardoperation.o [49]
sec_hand                0x2000'bb6c     0x4  Data  Lc  xfail_s.o [56]
sectorErasing              0x1'8e1f    0x58  Code  Gb  usr_flash.o [17]
securityStatus          0x1fff'0ae4     0x4  Data  Gb  usr_flash.o [17]
segment_holding            0x1'a4f9    0x1c  Code  Lc  dlmalloc.o [56]
send_cmd                   0x1'5567    0xa4  Code  Lc  diskio.o [49]
setBatMinSOC            0x2000'bb78     0x1  Data  Lc  FaultProcess.o [46]
simConfig_BOARD_BootClockRUN
                           0x1'cc68     0x8  Data  Gb  clock_config.o [1]
smbalert                0x2000'b928     0x1  Data  Gb  LTC4015_main.o [25]
snprintf                     0x96e5    0x44  Code  Gb  snprintf.o [56]
spidataread             0x2000'b860     0x1  Data  Gb  spi.o [50]
spidataread1            0x2000'b861     0x1  Data  Gb  spi.o [50]
std::_NomemoryNothrow()
                           0x1'a4f5     0x4  Code  Gb  nomemory.o [57]
std::__iar_New_hand     0x2000'bb68     0x4  Data  Gb  new.o [57]
storeRfidData           0x2000'b0e0    0xf0  Data  Gb  RobotOperation.o [43]
storedLastOpStatus      0x2000'b8b8    0x1c  Data  Lc  RobotControl.o [41]
strcat                       0xbad9    0x1e  Code  Gb  strcat.o [56]
strchr                     0x1'6711          Code  Gb  strchr.o [59]
strcpy                     0x1'0935          Code  Gb  strcpy.o [59]
strlen                       0x9729          Code  Gb  strlen.o [59]
strncmp                    0x1'9321    0x28  Code  Gb  strncmp.o [56]
strncpy                    0x1'3e49          Code  Gb  strncpy.o [59]
strstr                     0x1'547d    0x2c  Code  Gb  strstr.o [56]
strtof                       0xe77d     0x6  Code  Gb  strto32.o [58]
strtol                       0x7605     0x4  Code  Gb  iar_Stolx.o [56]
strtoul                      0x954d     0x2  Code  Gb  iar_Stoulx.o [56]
strtoull                     0xe521     0x2  Code  Gb  iar_Stoullx.o [56]
sum                     0x2000'bb30     0x4  Data  Gb  APIProcessing.o [5]
switchState             0x2000'bb82     0x1  Data  Gb  switch.o [51]
sync_fs                      0xf6bf    0x6a  Code  Lc  ff.o [49]
sync_window                  0xf63d    0x4e  Code  Lc  ff.o [49]
tc_count                0x1fff'0ab0     0x4  Data  Gb  RobotOperation.o [43]
tcendtime                    0x70fd    0x3a  Code  Gb  APIProcessing.o [5]
tcstarttime                  0x70b1    0x4c  Code  Gb  APIProcessing.o [5]
tempSense1_ptime        0x2000'ba00     0x4  Data  Lc  temp_sensors.o [52]
tempSense1_pvalue       0x2000'b9f8     0x4  Data  Lc  temp_sensors.o [52]
tempSense2_ptime        0x2000'ba04     0x4  Data  Lc  temp_sensors.o [52]
tempSense2_pvalue       0x2000'b9fc     0x4  Data  Lc  temp_sensors.o [52]
tempSetTrackOpData      0x2000'9c70   0x6f8  Data  Gb  RobotOperation.o [43]
tolower                    0x1'10a1    0x14  Code  Gb  tolower.o [56]
trackChangerError       0x1fff'0a7d     0x1  Data  Gb  RobotOperation.o [43]
trackChangerState       0x1fff'0a7f     0x1  Data  Gb  RobotOperation.o [43]
trackData               0x2000'b368    0xc8  Data  Gb  RobotOperation.o [43]
trackchangercount       0x1fff'0aac     0x4  Data  Gb  RobotOperation.o [43]
txAckBuff               0x2000'b2a0    0xc8  Data  Lc  APIProcessing.o [5]
txBuff                  0x2000'4e28  0x2710  Data  Lc  APIProcessing.o [5]
txBuff                  0x2000'7560  0x2710  Data  Lc  ConfigAPIProcess.o [9]
uartType                0x1fff'0e04     0x1  Data  Lc  CommCommon.o [6]
validate                   0x1'01b1    0x2a  Code  Lc  ff.o [49]
value                   0x1fff'0c08     0x8  Data  Gb  rfid.o [38]
vsnprintf                  0x1'a4b9    0x3c  Code  Gb  vsnprint.o [56]
wait_ready                 0x1'54a9    0x2c  Code  Lc  diskio.o [49]
write_flash                0x1'8e95    0x82  Code  Gb  usr_flash.o [17]
xbee                    0x2000'b4f8    0x60  Data  Gb  ZigbeeAPI.o [55]
xmit_datablock             0x1'551f    0x48  Code  Lc  diskio.o [49]
zigbeeConfigChangeFlag  0x1fff'0d39     0x1  Data  Lc  ZigbeeAPIMode.o [12]
zigbeeConfigValues      0x2000'b5b0    0x58  Data  Lc  ZigbeeAPIMode.o [12]
zigbeeInitStatus        0x1fff'0d3b     0x1  Data  Lc  ZigbeeAPIMode.o [12]
zigbeeNetworkResetFlag  0x1fff'0d3a     0x1  Data  Lc  ZigbeeAPIMode.o [12]
zigbeeRxDataReadInProgress
                        0x1fff'0d90     0x1  Data  Lc  ZigbeeUart.o [13]
zigbeeUartRx            0x2000'a908   0x1fc  Data  Lc  ZigbeeUart.o [13]
zigbeeUartRxMacAddress  0x1fff'0d98     0x8  Data  Lc  ZigbeeUart.o [13]
zigbeeUartTx            0x2000'ab04   0x1fc  Data  Lc  ZigbeeUart.o [13]


[1] = F:\PROJECTS\GANGES\2023\27.07.2023\PHASE 3\Solar Cleaner & Track Changer\CODE_G3_TC_08.06.2023\TRACKCHANGER_G3\iar\release\obj\board
[2] = F:\PROJECTS\GANGES\2023\27.07.2023\PHASE 3\Solar Cleaner & Track Changer\CODE_G3_TC_08.06.2023\TRACKCHANGER_G3\iar\release\obj\drivers
[3] = F:\PROJECTS\GANGES\2023\27.07.2023\PHASE 3\Solar Cleaner & Track Changer\CODE_G3_TC_08.06.2023\TRACKCHANGER_G3\iar\release\obj\source
[4] = F:\PROJECTS\GANGES\2023\27.07.2023\PHASE 3\Solar Cleaner & Track Changer\CODE_G3_TC_08.06.2023\TRACKCHANGER_G3\iar\release\obj\source\ADC
[5] = F:\PROJECTS\GANGES\2023\27.07.2023\PHASE 3\Solar Cleaner & Track Changer\CODE_G3_TC_08.06.2023\TRACKCHANGER_G3\iar\release\obj\source\API Processing
[6] = F:\PROJECTS\GANGES\2023\27.07.2023\PHASE 3\Solar Cleaner & Track Changer\CODE_G3_TC_08.06.2023\TRACKCHANGER_G3\iar\release\obj\source\Communication
[7] = F:\PROJECTS\GANGES\2023\27.07.2023\PHASE 3\Solar Cleaner & Track Changer\CODE_G3_TC_08.06.2023\TRACKCHANGER_G3\iar\release\obj\source\Communication\BmsUart
[8] = F:\PROJECTS\GANGES\2023\27.07.2023\PHASE 3\Solar Cleaner & Track Changer\CODE_G3_TC_08.06.2023\TRACKCHANGER_G3\iar\release\obj\source\Communication\ConfigUart
[9] = F:\PROJECTS\GANGES\2023\27.07.2023\PHASE 3\Solar Cleaner & Track Changer\CODE_G3_TC_08.06.2023\TRACKCHANGER_G3\iar\release\obj\source\Communication\ConfigUart\ConfigUart API Process
[10] = F:\PROJECTS\GANGES\2023\27.07.2023\PHASE 3\Solar Cleaner & Track Changer\CODE_G3_TC_08.06.2023\TRACKCHANGER_G3\iar\release\obj\source\Communication\ConfigUart\ConfigUart API Process\JSON Parser
[11] = F:\PROJECTS\GANGES\2023\27.07.2023\PHASE 3\Solar Cleaner & Track Changer\CODE_G3_TC_08.06.2023\TRACKCHANGER_G3\iar\release\obj\source\Communication\DebugUart
[12] = F:\PROJECTS\GANGES\2023\27.07.2023\PHASE 3\Solar Cleaner & Track Changer\CODE_G3_TC_08.06.2023\TRACKCHANGER_G3\iar\release\obj\source\Communication\ZigbeeAPIMode
[13] = F:\PROJECTS\GANGES\2023\27.07.2023\PHASE 3\Solar Cleaner & Track Changer\CODE_G3_TC_08.06.2023\TRACKCHANGER_G3\iar\release\obj\source\Communication\ZigbeeUart
[14] = F:\PROJECTS\GANGES\2023\27.07.2023\PHASE 3\Solar Cleaner & Track Changer\CODE_G3_TC_08.06.2023\TRACKCHANGER_G3\iar\release\obj\source\DEBUG
[15] = F:\PROJECTS\GANGES\2023\27.07.2023\PHASE 3\Solar Cleaner & Track Changer\CODE_G3_TC_08.06.2023\TRACKCHANGER_G3\iar\release\obj\source\DELAY
[16] = F:\PROJECTS\GANGES\2023\27.07.2023\PHASE 3\Solar Cleaner & Track Changer\CODE_G3_TC_08.06.2023\TRACKCHANGER_G3\iar\release\obj\source\DefaultValues
[17] = F:\PROJECTS\GANGES\2023\27.07.2023\PHASE 3\Solar Cleaner & Track Changer\CODE_G3_TC_08.06.2023\TRACKCHANGER_G3\iar\release\obj\source\EEPROM
[18] = F:\PROJECTS\GANGES\2023\27.07.2023\PHASE 3\Solar Cleaner & Track Changer\CODE_G3_TC_08.06.2023\TRACKCHANGER_G3\iar\release\obj\source\EdgeSensor
[19] = F:\PROJECTS\GANGES\2023\27.07.2023\PHASE 3\Solar Cleaner & Track Changer\CODE_G3_TC_08.06.2023\TRACKCHANGER_G3\iar\release\obj\source\EventLogger
[20] = F:\PROJECTS\GANGES\2023\27.07.2023\PHASE 3\Solar Cleaner & Track Changer\CODE_G3_TC_08.06.2023\TRACKCHANGER_G3\iar\release\obj\source\I2C
[21] = F:\PROJECTS\GANGES\2023\27.07.2023\PHASE 3\Solar Cleaner & Track Changer\CODE_G3_TC_08.06.2023\TRACKCHANGER_G3\iar\release\obj\source\LED
[22] = F:\PROJECTS\GANGES\2023\27.07.2023\PHASE 3\Solar Cleaner & Track Changer\CODE_G3_TC_08.06.2023\TRACKCHANGER_G3\iar\release\obj\source\LED\LED1
[23] = F:\PROJECTS\GANGES\2023\27.07.2023\PHASE 3\Solar Cleaner & Track Changer\CODE_G3_TC_08.06.2023\TRACKCHANGER_G3\iar\release\obj\source\LED\LED2
[24] = F:\PROJECTS\GANGES\2023\27.07.2023\PHASE 3\Solar Cleaner & Track Changer\CODE_G3_TC_08.06.2023\TRACKCHANGER_G3\iar\release\obj\source\LED\LED3
[25] = F:\PROJECTS\GANGES\2023\27.07.2023\PHASE 3\Solar Cleaner & Track Changer\CODE_G3_TC_08.06.2023\TRACKCHANGER_G3\iar\release\obj\source\LTC4015
[26] = F:\PROJECTS\GANGES\2023\27.07.2023\PHASE 3\Solar Cleaner & Track Changer\CODE_G3_TC_08.06.2023\TRACKCHANGER_G3\iar\release\obj\source\MotorControl\BrushMotor
[27] = F:\PROJECTS\GANGES\2023\27.07.2023\PHASE 3\Solar Cleaner & Track Changer\CODE_G3_TC_08.06.2023\TRACKCHANGER_G3\iar\release\obj\source\MotorControl\BrushMotor\BrushPwm
[28] = F:\PROJECTS\GANGES\2023\27.07.2023\PHASE 3\Solar Cleaner & Track Changer\CODE_G3_TC_08.06.2023\TRACKCHANGER_G3\iar\release\obj\source\MotorControl\Motor1
[29] = F:\PROJECTS\GANGES\2023\27.07.2023\PHASE 3\Solar Cleaner & Track Changer\CODE_G3_TC_08.06.2023\TRACKCHANGER_G3\iar\release\obj\source\MotorControl\Motor1\Pwm1
[30] = F:\PROJECTS\GANGES\2023\27.07.2023\PHASE 3\Solar Cleaner & Track Changer\CODE_G3_TC_08.06.2023\TRACKCHANGER_G3\iar\release\obj\source\MotorControl\Motor2
[31] = F:\PROJECTS\GANGES\2023\27.07.2023\PHASE 3\Solar Cleaner & Track Changer\CODE_G3_TC_08.06.2023\TRACKCHANGER_G3\iar\release\obj\source\MotorControl\Motor2\Pwm2
[32] = F:\PROJECTS\GANGES\2023\27.07.2023\PHASE 3\Solar Cleaner & Track Changer\CODE_G3_TC_08.06.2023\TRACKCHANGER_G3\iar\release\obj\source\OTHER
[33] = F:\PROJECTS\GANGES\2023\27.07.2023\PHASE 3\Solar Cleaner & Track Changer\CODE_G3_TC_08.06.2023\TRACKCHANGER_G3\iar\release\obj\source\OTHER\LPTimer
[34] = F:\PROJECTS\GANGES\2023\27.07.2023\PHASE 3\Solar Cleaner & Track Changer\CODE_G3_TC_08.06.2023\TRACKCHANGER_G3\iar\release\obj\source\OTHER\VBatREG
[35] = F:\PROJECTS\GANGES\2023\27.07.2023\PHASE 3\Solar Cleaner & Track Changer\CODE_G3_TC_08.06.2023\TRACKCHANGER_G3\iar\release\obj\source\OTHER\WDTimer
[36] = F:\PROJECTS\GANGES\2023\27.07.2023\PHASE 3\Solar Cleaner & Track Changer\CODE_G3_TC_08.06.2023\TRACKCHANGER_G3\iar\release\obj\source\PROXIMITY
[37] = F:\PROJECTS\GANGES\2023\27.07.2023\PHASE 3\Solar Cleaner & Track Changer\CODE_G3_TC_08.06.2023\TRACKCHANGER_G3\iar\release\obj\source\PortInterrupt
[38] = F:\PROJECTS\GANGES\2023\27.07.2023\PHASE 3\Solar Cleaner & Track Changer\CODE_G3_TC_08.06.2023\TRACKCHANGER_G3\iar\release\obj\source\RFID
[39] = F:\PROJECTS\GANGES\2023\27.07.2023\PHASE 3\Solar Cleaner & Track Changer\CODE_G3_TC_08.06.2023\TRACKCHANGER_G3\iar\release\obj\source\RTC
[40] = F:\PROJECTS\GANGES\2023\27.07.2023\PHASE 3\Solar Cleaner & Track Changer\CODE_G3_TC_08.06.2023\TRACKCHANGER_G3\iar\release\obj\source\Relay
[41] = F:\PROJECTS\GANGES\2023\27.07.2023\PHASE 3\Solar Cleaner & Track Changer\CODE_G3_TC_08.06.2023\TRACKCHANGER_G3\iar\release\obj\source\RobotControl
[42] = F:\PROJECTS\GANGES\2023\27.07.2023\PHASE 3\Solar Cleaner & Track Changer\CODE_G3_TC_08.06.2023\TRACKCHANGER_G3\iar\release\obj\source\RobotControl\BrushControl
[43] = F:\PROJECTS\GANGES\2023\27.07.2023\PHASE 3\Solar Cleaner & Track Changer\CODE_G3_TC_08.06.2023\TRACKCHANGER_G3\iar\release\obj\source\RobotOperation
[44] = F:\PROJECTS\GANGES\2023\27.07.2023\PHASE 3\Solar Cleaner & Track Changer\CODE_G3_TC_08.06.2023\TRACKCHANGER_G3\iar\release\obj\source\RobotOperation\AutoSchedule
[45] = F:\PROJECTS\GANGES\2023\27.07.2023\PHASE 3\Solar Cleaner & Track Changer\CODE_G3_TC_08.06.2023\TRACKCHANGER_G3\iar\release\obj\source\RobotOperation\CycleMode
[46] = F:\PROJECTS\GANGES\2023\27.07.2023\PHASE 3\Solar Cleaner & Track Changer\CODE_G3_TC_08.06.2023\TRACKCHANGER_G3\iar\release\obj\source\RobotOperation\FaultProcess
[47] = F:\PROJECTS\GANGES\2023\27.07.2023\PHASE 3\Solar Cleaner & Track Changer\CODE_G3_TC_08.06.2023\TRACKCHANGER_G3\iar\release\obj\source\RobotOperation\FaultProcess\OverCurrentFault
[48] = F:\PROJECTS\GANGES\2023\27.07.2023\PHASE 3\Solar Cleaner & Track Changer\CODE_G3_TC_08.06.2023\TRACKCHANGER_G3\iar\release\obj\source\RotateSense
[49] = F:\PROJECTS\GANGES\2023\27.07.2023\PHASE 3\Solar Cleaner & Track Changer\CODE_G3_TC_08.06.2023\TRACKCHANGER_G3\iar\release\obj\source\SDFAT
[50] = F:\PROJECTS\GANGES\2023\27.07.2023\PHASE 3\Solar Cleaner & Track Changer\CODE_G3_TC_08.06.2023\TRACKCHANGER_G3\iar\release\obj\source\SPI
[51] = F:\PROJECTS\GANGES\2023\27.07.2023\PHASE 3\Solar Cleaner & Track Changer\CODE_G3_TC_08.06.2023\TRACKCHANGER_G3\iar\release\obj\source\SWITCH
[52] = F:\PROJECTS\GANGES\2023\27.07.2023\PHASE 3\Solar Cleaner & Track Changer\CODE_G3_TC_08.06.2023\TRACKCHANGER_G3\iar\release\obj\source\TEMP SENSOR
[53] = F:\PROJECTS\GANGES\2023\27.07.2023\PHASE 3\Solar Cleaner & Track Changer\CODE_G3_TC_08.06.2023\TRACKCHANGER_G3\iar\release\obj\startup
[54] = F:\PROJECTS\GANGES\2023\27.07.2023\PHASE 3\Solar Cleaner & Track Changer\CODE_G3_TC_08.06.2023\TRACKCHANGER_G3\iar\release\obj\utilities
[55] = XbeeZigbeeAPI.a
[56] = dl7M_tlf.a
[57] = dlpprt7M_tl_fc.a
[58] = m7M_tls.a
[59] = rt7M_tl.a

  119'545 bytes of readonly  code memory
   13'095 bytes of readonly  data memory
   91'240 bytes of readwrite data memory

Errors: none
Warnings: none
